"File: Robot_Arm_Main_v4.c  Assembler  Version HGASM0202      Page 1


   1  0000              ; Generated by holtek-gcc v3.19, Wed Nov 17 15:35:18 2021
   2  0000              ; 
   3  0000              ; Configuration:
   4  0000              ;       with long instruction
   5  0000              ;       Multi-ROM, Multi-RAM
   6  0000              ;       bits_per_rom_unit:16
   7  0000              ;       with mp1
   8  0000              ;       with tbhp, address(0x9)
   9  0000              ;          Use tabrd-const
  10  0000              ;       
  11  0000              ; SFR address of long-instruction arch:
  12  0000              ;    mp0 = -1,1,0
  13  0000              ;    mp1 = 4,3,2
  14  0000              ;    mp2 = 14,13,12
  15  0000              ;    tbp = 9,7,8
  16  0000              ;    acc = 5
  17  0000              ;    pcl = 6
  18  0000              ;    status = 10
  19  0000              ;    bp = 11
  20  0000              ;    intc = 16
  21  0000              ;       
  22  0000              ;       
  23  0000              ; use 'tabrdc' instead of 'tabrd'
  24  0000              ;       
  25  0000              
  26  0000              #pragma translator "holtek-gcc 4.6.4" "3.19" "build 20130711"
  27  0000              ; Rebuild 718
  28  0000              
  29  0000              ir equ [2]
  30  0000              mp equ [3]
  31  0000              sbp equ [4]
  32  0000              acc equ [5]
  33  0000              bp equ [11]
  34  0000              tblp equ [7]
  35  0000              tbhp equ [9]
  36  0000              status equ [10]
  37  0000              c equ [10].0
  38  0000              ac equ [10].1
  39  0000              z equ [10].2
  40  0000              ov equ [10].3
  41  0000              cz equ [10].6
  42  0000              sc equ [10].7
  43  0000              intc equ [16]
  44  0000              mduwr0 equ [59h]
  45  0000              mduwr1 equ [5ah]
  46  0000              mduwr2 equ [5bh]
  47  0000              mduwr3 equ [5ch]
  48  0000              mduwr4 equ [5dh]
  49  0000              mduwr5 equ [5eh]
  50  0000              mduwrctrl equ [5fh]
  51  0000              
  52  0000              extern ra:byte
  53  0000              extern rb:byte
  54  0000              extern rc:byte
  55  0000              extern rd:byte
  56  0000              extern re:byte
  57  0000              extern rf:byte
  58  0000              extern rg:byte
  59  0000              extern rh:byte
"File: Robot_Arm_Main_v4.ASM  Assembler  Version HGASM0202      Page 2

  60  0000              extern _Crom2Prom:near
  61  0000              extern _Crom2PromNext:near
  62  0000              
  63  0000              RAMBANK 0 @BITDATASEC, @BITDATASEC1
  64  0000              @HCCINIT	.section 'data'
  65  0000              @HCCINIT0	.section 'data'
  66  0000              @BITDATASEC	 .section 'data'
  67  0000              @BITDATASEC1	 .section 'data'
  68  0000              
  69  0000              #pragma debug scope 1 1
  70  0000              	extern __DELAY3:near
  71  0000              	extern __DELAYX3:near
  72  0000              	extern __DELAYX6:near
  73  0000              	extern __DELAYY5:near
  74  0000              	extern __DELAYY3:near
  75  0000              	extern _builtin_holtek_delay_2:byte
  76  0000              ___pas1 equ [334]
  77  0000              ___u0cr1 equ [273]
  78  0000              ___u0cr2 equ [274]
  79  0000              ___brg0 equ [276]
  80  0000              ___mfi5 equ [56]
  81  0000              ___intc3 equ [19]
  82  0000              ___intc0 equ [16]
  83  0000              public _UART_Setup
  84  0000              #pragma debug scope 2 1

 186  0000              #line 186 "D:\Wade\Project\Robot_Arm\Holtek_MCU\Program\Robot_Arm_Main_v4\Robot_Arm_Main_v4.c"
 186  0000              _UART_Setup .section 'code'
 186  0000              _UART_Setup proc
 187  0000              #line 187 "D:\Wade\Project\Robot_Arm\Holtek_MCU\Program\Robot_Arm_Main_v4\Robot_Arm_Main_v4.c"
 187  0000  0FF0        	mov a,240
 187  0001  80CE 0001   	lmov [334],a
 188  0003              #line 188 "D:\Wade\Project\Robot_Arm\Holtek_MCU\Program\Robot_Arm_Main_v4\Robot_Arm_Main_v4.c"
 188  0003  0F80        	mov a,128
 188  0004  8091 0001   	lmov [273],a
 189  0006              #line 189 "D:\Wade\Project\Robot_Arm\Holtek_MCU\Program\Robot_Arm_Main_v4\Robot_Arm_Main_v4.c"
 189  0006  0F44        	mov a,68
 189  0007  8092 0001   	lmov [274],a
 190  0009              #line 190 "D:\Wade\Project\Robot_Arm\Holtek_MCU\Program\Robot_Arm_Main_v4\Robot_Arm_Main_v4.c"
 190  0009  0F0C        	mov a,12
 190  000A  8094 0001   	lmov [276],a
 191  000C              #line 191 "D:\Wade\Project\Robot_Arm\Holtek_MCU\Program\Robot_Arm_Main_v4\Robot_Arm_Main_v4.c"
 191  000C  3038        	set [56].0
 192  000D              #line 192 "D:\Wade\Project\Robot_Arm\Holtek_MCU\Program\Robot_Arm_Main_v4\Robot_Arm_Main_v4.c"
 192  000D  3638        	clr [56].4
 193  000E              #line 193 "D:\Wade\Project\Robot_Arm\Holtek_MCU\Program\Robot_Arm_Main_v4\Robot_Arm_Main_v4.c"
 193  000E  3193        	set [19].3
 194  000F              #line 194 "D:\Wade\Project\Robot_Arm\Holtek_MCU\Program\Robot_Arm_Main_v4\Robot_Arm_Main_v4.c"
 194  000F  3010        	set [16].0
 194  0010  0003        	ret
 194  0011              _UART_Setup endp
 194  0011              #line 194 "D:\Wade\Project\Robot_Arm\Holtek_MCU\Program\Robot_Arm_Main_v4\Robot_Arm_Main_v4.c"
 194  0011              #pragma debug scope 1 1
 194  0011              ___u0sr equ [272]
 194  0011              ___txr_rxr0 equ [275]
 194  0011              public _Read_Data
 194  0011              #pragma debug scope 3 1
 198  0011              #line 198 "D:\Wade\Project\Robot_Arm\Holtek_MCU\Program\Robot_Arm_Main_v4\Robot_Arm_Main_v4.c"
 198  0000              _Read_Data .section 'code'
 198  0000              _Read_Data proc
"File: Robot_Arm_Main_v4.c  Assembler  Version HGASM0202      Page 3

 198  0000              _L4:
 199  0000              #line 199 "D:\Wade\Project\Robot_Arm\Holtek_MCU\Program\Robot_Arm_Main_v4\Robot_Arm_Main_v4.c"
 199  0000  B990 0001   	lsnz [272].3
 199  0002  2800     R  	jmp _L4
 200  0003              #line 200 "D:\Wade\Project\Robot_Arm\Holtek_MCU\Program\Robot_Arm_Main_v4\Robot_Arm_Main_v4.c"
 200  0003  0700     R  	mov a,_kn[0]
 200  0004  0080     E  	mov rb,a
 200  0005  0700     R  	mov a,_kn[1]
 200  0006  0080     E  	mov rc,a
 200  0007  8713 0001   	lmov a,[275]
 200  0009  0080     E  	mov ra,a
 200  000A  0F00     R  	mov a,low offset _R_Data
 200  000B  0300     E  	add a,rb
 200  000C  0083        	mov mp,a
 200  000D  0F00     R  	mov a,high offset _R_Data
 200  000E  1300     E  	adc a,rc
 200  000F  0084        	mov sbp,a
 200  0010  0700     E  	mov a,ra
 200  0011  0082        	mov ir,a
 201  0012              #line 201 "D:\Wade\Project\Robot_Arm\Holtek_MCU\Program\Robot_Arm_Main_v4\Robot_Arm_Main_v4.c"
 201  0012  0700     E  	mov a,ra
 201  0013  0A2F        	sub a,47
 201  0014  3D0A        	sz z
 201  0015  2800     R  	jmp _L5
 201  0016  0F09        	mov a,9
 201  0017  0200     E  	sub a,rb
 201  0018  0F00        	mov a,0
 201  0019  1200     E  	sbc a,rc
 201  001A  3C0A        	sz c
 201  001B  2800     R  	jmp _L6
 201  001C              _L5:
 201  001C              #pragma debug scope 4 3
 201  001C              ;begin block, line: 201.-1
 203  001C              #line 203 "D:\Wade\Project\Robot_Arm\Holtek_MCU\Program\Robot_Arm_Main_v4\Robot_Arm_Main_v4.c"
 203  001C  1F00     R  	clr _kn[0]
 203  001D  1F00     R  	clr _kn[1]
 205  001E              #line 205 "D:\Wade\Project\Robot_Arm\Holtek_MCU\Program\Robot_Arm_Main_v4\Robot_Arm_Main_v4.c"
 205  001E  1F00     E  	clr rb
 205  001F  1F00     E  	clr rc
 205  0020              _L8:
 206  0020              #line 206 "D:\Wade\Project\Robot_Arm\Holtek_MCU\Program\Robot_Arm_Main_v4\Robot_Arm_Main_v4.c"
 206  0020  0F00     R  	mov a,low offset _R_Data
 206  0021  0300     E  	add a,rb
 206  0022  0083        	mov mp,a
 206  0023  0F00     R  	mov a,high offset _R_Data
 206  0024  1300     E  	adc a,rc
 206  0025  0084        	mov sbp,a
 206  0026              	fcall _Crom2Prom
 206  002D  0080     E  	mov ra,a
 206  002E  0F00     R  	mov a,low offset _Data
 206  002F  0300     E  	add a,rb
 206  0030  0083        	mov mp,a
 206  0031  0F00     R  	mov a,high offset _Data
 206  0032  1300     E  	adc a,rc
 206  0033  0084        	mov sbp,a
 206  0034  0700     E  	mov a,ra
 206  0035  0082        	mov ir,a
 205  0036              #line 205 "D:\Wade\Project\Robot_Arm\Holtek_MCU\Program\Robot_Arm_Main_v4\Robot_Arm_Main_v4.c"
 205  0036  1480     E  	inc rb
 205  0037  3D0A        	sz z
"File: Robot_Arm_Main_v4.c  Assembler  Version HGASM0202      Page 4

 205  0038  1480     E  	inc rc
 205  0039  0700     E  	mov a,rb
 205  003A  0C0A        	xor a,10
 205  003B  0500     E  	or a,rc
 205  003C  390A        	snz z
 205  003D  2800     R  	jmp _L8
 205  003E  2800     R  	jmp _L2
 205  003F              _L6:
 205  003F              #pragma debug scope 3 1
 208  003F              #line 208 "D:\Wade\Project\Robot_Arm\Holtek_MCU\Program\Robot_Arm_Main_v4\Robot_Arm_Main_v4.c"
 208  003F  0F01        	mov a,1
 208  0040  0300     E  	add a,rb
 208  0041  0080     R  	mov _kn[0],a
 208  0042  0F00        	mov a,0
 208  0043  1300     E  	adc a,rc
 208  0044  0080     R  	mov _kn[1],a
 208  0045              _L2:
 208  0045  0003        	ret
 208  0046              _Read_Data endp
 208  0046              #line 208 "D:\Wade\Project\Robot_Arm\Holtek_MCU\Program\Robot_Arm_Main_v4\Robot_Arm_Main_v4.c"
 208  0046              #pragma debug scope 1 1
 208  0046              ___pc equ [27]
 208  0046              public _Uart_R
 208  0046              #pragma debug scope 5 1
 178  0046              #line 178 "D:\Wade\Project\Robot_Arm\Holtek_MCU\Program\Robot_Arm_Main_v4\Robot_Arm_Main_v4.c"
 178  0046              rombank 0 @Uart_R_code
 178  0000              @Uart_R_code .section at 60 'code'
 178  0000  0080     E  	mov r1,a
 178  0001  070B        	mov a,bp
 178  0002  1F0B        	clr bp
 178  0003  2800     R  	jmp _Uart_R
 178  0004              ROMBANK 0 _Uart_R
 178  0004              #pragma debug scope 1 1
 178  0004              @dummy60 endp
 178  0004              #pragma debug scope 6 1
 178  0000              _Uart_R .section 'code'
 178  0000              _Uart_R proc
 178  0000  0080     E  	mov r2,a
 178  0001  070A        	mov a, status
 178  0002  0080     E  	mov r3,a
 178  0003  0703        	mov a,mp
 178  0004  0080     E  	mov r4,a
 178  0005  0704        	mov a,sbp
 178  0006  0080     E  	mov r5,a
 178  0007  0707        	mov a,tblp
 178  0008  0080     E  	mov r6,a
 178  0009  0709        	mov a,tbhp
 178  000A  0080     E  	mov r7,a
 179  000B              #line 179 "D:\Wade\Project\Robot_Arm\Holtek_MCU\Program\Robot_Arm_Main_v4\Robot_Arm_Main_v4.c"
 179  000B  341B        	clr [27].0
 180  000C              #line 180 "D:\Wade\Project\Robot_Arm\Holtek_MCU\Program\Robot_Arm_Main_v4\Robot_Arm_Main_v4.c"
 180  000C              	fcall _Read_Data
 181  0013              #line 181 "D:\Wade\Project\Robot_Arm\Holtek_MCU\Program\Robot_Arm_Main_v4\Robot_Arm_Main_v4.c"
 181  0013  3638        	clr [56].4
 182  0014              #line 182 "D:\Wade\Project\Robot_Arm\Holtek_MCU\Program\Robot_Arm_Main_v4\Robot_Arm_Main_v4.c"
 182  0014  301B        	set [27].0
 182  0015  0700     E  	mov a,r2
 182  0016  008B        	mov bp,a
 182  0017  0700     E  	mov a,r3
 182  0018  008A        	mov status,a
"File: Robot_Arm_Main_v4.c  Assembler  Version HGASM0202      Page 5

 182  0019  0700     E  	mov a,r4
 182  001A  0083        	mov mp,a
 182  001B  0700     E  	mov a,r5
 182  001C  0084        	mov sbp,a
 182  001D  0700     E  	mov a,r6
 182  001E  0087        	mov tblp,a
 182  001F  0700     E  	mov a,r7
 182  0020  0089        	mov tbhp,a
 182  0021  1D05        	tabrdc acc
 182  0022  0700     E  	mov a,r1
 182  0023  0004        	reti
 182  0024              _Uart_R endp
 182  0024              
 182  0024              #line 182 "D:\Wade\Project\Robot_Arm\Holtek_MCU\Program\Robot_Arm_Main_v4\Robot_Arm_Main_v4.c"
 182  0024              #pragma debug scope 1 1
 182  0024              ___stm0c0 equ [78]
 182  0024              ___stm0c1 equ [79]
 182  0024              ___stm0rp equ [84]
 182  0024              ___stm0al equ [82]
 182  0024              ___stm0ah equ [83]
 182  0024              ___stm1c0 equ [306]
 182  0024              ___stm1c1 equ [307]
 182  0024              ___stm1rp equ [312]
 182  0024              ___stm1al equ [310]
 182  0024              ___stm1ah equ [311]
 182  0024              ___stm2c0 equ [313]
 182  0024              ___stm2c1 equ [314]
 182  0024              ___stm2rp equ [319]
 182  0024              ___stm2al equ [317]
 182  0024              ___stm2ah equ [318]
 182  0024              ___ptm0c0 equ [70]
 182  0024              ___ptm0c1 equ [71]
 182  0024              ___ptm0rpl equ [76]
 182  0024              ___ptm0rph equ [77]
 182  0024              ___ptm0al equ [74]
 182  0024              ___ptm0ah equ [75]
 182  0024              ___ptm1c0 equ [282]
 182  0024              ___ptm1c1 equ [283]
 182  0024              ___ptm1rpl equ [288]
 182  0024              ___ptm1rph equ [289]
 182  0024              ___ptm1al equ [286]
 182  0024              ___ptm1ah equ [287]
 182  0024              ___ptm2c0 equ [290]
 182  0024              ___ptm2c1 equ [291]
 182  0024              ___ptm2rpl equ [296]
 182  0024              ___ptm2rph equ [297]
 182  0024              ___ptm2al equ [294]
 182  0024              ___ptm2ah equ [295]
 182  0024              public _time_setup
 182  0024              #pragma debug scope 7 1
 227  0024              #line 227 "D:\Wade\Project\Robot_Arm\Holtek_MCU\Program\Robot_Arm_Main_v4\Robot_Arm_Main_v4.c"
 227  0000              _time_setup .section 'code'
 227  0000              _time_setup proc
 228  0000              #line 228 "D:\Wade\Project\Robot_Arm\Holtek_MCU\Program\Robot_Arm_Main_v4\Robot_Arm_Main_v4.c"
 228  0000  0F30        	mov a,48
 228  0001  00CE        	mov [78],a
 229  0002              #line 229 "D:\Wade\Project\Robot_Arm\Holtek_MCU\Program\Robot_Arm_Main_v4\Robot_Arm_Main_v4.c"
 229  0002  0FA8        	mov a,168
 229  0003  00CF        	mov [79],a
 230  0004              #line 230 "D:\Wade\Project\Robot_Arm\Holtek_MCU\Program\Robot_Arm_Main_v4\Robot_Arm_Main_v4.c"
"File: Robot_Arm_Main_v4.c  Assembler  Version HGASM0202      Page 6

 230  0004  0F0A        	mov a,10
 230  0005  00D4        	mov [84],a
 231  0006              #line 231 "D:\Wade\Project\Robot_Arm\Holtek_MCU\Program\Robot_Arm_Main_v4\Robot_Arm_Main_v4.c"
 231  0006  0FBC        	mov a,188
 231  0007  00D2        	mov [82],a
 231  0008  1F53        	clr [83]
 233  0009              #line 233 "D:\Wade\Project\Robot_Arm\Holtek_MCU\Program\Robot_Arm_Main_v4\Robot_Arm_Main_v4.c"
 233  0009  0F30        	mov a,48
 233  000A  80B2 0001   	lmov [306],a
 234  000C              #line 234 "D:\Wade\Project\Robot_Arm\Holtek_MCU\Program\Robot_Arm_Main_v4\Robot_Arm_Main_v4.c"
 234  000C  0FA8        	mov a,168
 234  000D  80B3 0001   	lmov [307],a
 235  000F              #line 235 "D:\Wade\Project\Robot_Arm\Holtek_MCU\Program\Robot_Arm_Main_v4\Robot_Arm_Main_v4.c"
 235  000F  0F0A        	mov a,10
 235  0010  80B8 0001   	lmov [312],a
 236  0012              #line 236 "D:\Wade\Project\Robot_Arm\Holtek_MCU\Program\Robot_Arm_Main_v4\Robot_Arm_Main_v4.c"
 236  0012  0FBC        	mov a,188
 236  0013  80B6 0001   	lmov [310],a
 236  0015  9F37 0001   	lclr [311]
 238  0017              #line 238 "D:\Wade\Project\Robot_Arm\Holtek_MCU\Program\Robot_Arm_Main_v4\Robot_Arm_Main_v4.c"
 238  0017  0F30        	mov a,48
 238  0018  80B9 0001   	lmov [313],a
 239  001A              #line 239 "D:\Wade\Project\Robot_Arm\Holtek_MCU\Program\Robot_Arm_Main_v4\Robot_Arm_Main_v4.c"
 239  001A  0FA8        	mov a,168
 239  001B  80BA 0001   	lmov [314],a
 240  001D              #line 240 "D:\Wade\Project\Robot_Arm\Holtek_MCU\Program\Robot_Arm_Main_v4\Robot_Arm_Main_v4.c"
 240  001D  0F0A        	mov a,10
 240  001E  80BF 0001   	lmov [319],a
 241  0020              #line 241 "D:\Wade\Project\Robot_Arm\Holtek_MCU\Program\Robot_Arm_Main_v4\Robot_Arm_Main_v4.c"
 241  0020  0FBC        	mov a,188
 241  0021  80BD 0001   	lmov [317],a
 241  0023  9F3E 0001   	lclr [318]
 243  0025              #line 243 "D:\Wade\Project\Robot_Arm\Holtek_MCU\Program\Robot_Arm_Main_v4\Robot_Arm_Main_v4.c"
 243  0025  0F30        	mov a,48
 243  0026  00C6        	mov [70],a
 244  0027              #line 244 "D:\Wade\Project\Robot_Arm\Holtek_MCU\Program\Robot_Arm_Main_v4\Robot_Arm_Main_v4.c"
 244  0027  0FA8        	mov a,168
 244  0028  00C7        	mov [71],a
 245  0029              #line 245 "D:\Wade\Project\Robot_Arm\Holtek_MCU\Program\Robot_Arm_Main_v4\Robot_Arm_Main_v4.c"
 245  0029  1FCC        	set [76]
 245  002A  0F03        	mov a,3
 245  002B  00CD        	mov [77],a
 246  002C              #line 246 "D:\Wade\Project\Robot_Arm\Holtek_MCU\Program\Robot_Arm_Main_v4\Robot_Arm_Main_v4.c"
 246  002C  0F64        	mov a,100
 246  002D  00CA        	mov [74],a
 246  002E  1F4B        	clr [75]
 248  002F              #line 248 "D:\Wade\Project\Robot_Arm\Holtek_MCU\Program\Robot_Arm_Main_v4\Robot_Arm_Main_v4.c"
 248  002F  0F30        	mov a,48
 248  0030  809A 0001   	lmov [282],a
 249  0032              #line 249 "D:\Wade\Project\Robot_Arm\Holtek_MCU\Program\Robot_Arm_Main_v4\Robot_Arm_Main_v4.c"
 249  0032  0FA8        	mov a,168
 249  0033  809B 0001   	lmov [283],a
 250  0035              #line 250 "D:\Wade\Project\Robot_Arm\Holtek_MCU\Program\Robot_Arm_Main_v4\Robot_Arm_Main_v4.c"
 250  0035  9FA0 0001   	lset [288]
 250  0037  0F03        	mov a,3
 250  0038  80A1 0001   	lmov [289],a
 251  003A              #line 251 "D:\Wade\Project\Robot_Arm\Holtek_MCU\Program\Robot_Arm_Main_v4\Robot_Arm_Main_v4.c"
 251  003A  0F64        	mov a,100
 251  003B  809E 0001   	lmov [286],a
 251  003D  9F1F 0001   	lclr [287]
"File: Robot_Arm_Main_v4.c  Assembler  Version HGASM0202      Page 7

 253  003F              #line 253 "D:\Wade\Project\Robot_Arm\Holtek_MCU\Program\Robot_Arm_Main_v4\Robot_Arm_Main_v4.c"
 253  003F  0F30        	mov a,48
 253  0040  80A2 0001   	lmov [290],a
 254  0042              #line 254 "D:\Wade\Project\Robot_Arm\Holtek_MCU\Program\Robot_Arm_Main_v4\Robot_Arm_Main_v4.c"
 254  0042  0FA8        	mov a,168
 254  0043  80A3 0001   	lmov [291],a
 255  0045              #line 255 "D:\Wade\Project\Robot_Arm\Holtek_MCU\Program\Robot_Arm_Main_v4\Robot_Arm_Main_v4.c"
 255  0045  9FA8 0001   	lset [296]
 255  0047  0F03        	mov a,3
 255  0048  80A9 0001   	lmov [297],a
 256  004A              #line 256 "D:\Wade\Project\Robot_Arm\Holtek_MCU\Program\Robot_Arm_Main_v4\Robot_Arm_Main_v4.c"
 256  004A  0F50        	mov a,80
 256  004B  80A6 0001   	lmov [294],a
 256  004D  9F27 0001   	lclr [295]
 256  004F  0003        	ret
 256  0050              _time_setup endp
 256  0050              #line 256 "D:\Wade\Project\Robot_Arm\Holtek_MCU\Program\Robot_Arm_Main_v4\Robot_Arm_Main_v4.c"
 256  0050              #pragma debug scope 1 1
 256  0050              ___pcs1 equ [338]
 256  0050              ___pds0 equ [339]
 256  0050              ___pfs1 equ [344]
 256  0050              ___pcs0 equ [337]
 256  0050              public _servo_setup
 256  0050              #pragma debug scope 8 1
 212  0050              #line 212 "D:\Wade\Project\Robot_Arm\Holtek_MCU\Program\Robot_Arm_Main_v4\Robot_Arm_Main_v4.c"
 212  0000              _servo_setup .section 'code'
 212  0000              _servo_setup proc
 213  0000              #line 213 "D:\Wade\Project\Robot_Arm\Holtek_MCU\Program\Robot_Arm_Main_v4\Robot_Arm_Main_v4.c"
 213  0000              	fcall _time_setup
 214  0007              #line 214 "D:\Wade\Project\Robot_Arm\Holtek_MCU\Program\Robot_Arm_Main_v4\Robot_Arm_Main_v4.c"
 214  0007  0F22        	mov a,34
 214  0008  80D2 0001   	lmov [338],a
 215  000A              #line 215 "D:\Wade\Project\Robot_Arm\Holtek_MCU\Program\Robot_Arm_Main_v4\Robot_Arm_Main_v4.c"
 215  000A  0F12        	mov a,18
 215  000B  80D3 0001   	lmov [339],a
 216  000D              #line 216 "D:\Wade\Project\Robot_Arm\Holtek_MCU\Program\Robot_Arm_Main_v4\Robot_Arm_Main_v4.c"
 216  000D  0F80        	mov a,128
 216  000E  80D8 0001   	lmov [344],a
 217  0010              #line 217 "D:\Wade\Project\Robot_Arm\Holtek_MCU\Program\Robot_Arm_Main_v4\Robot_Arm_Main_v4.c"
 217  0010  0F20        	mov a,32
 217  0011  80D1 0001   	lmov [337],a
 218  0013              #line 218 "D:\Wade\Project\Robot_Arm\Holtek_MCU\Program\Robot_Arm_Main_v4\Robot_Arm_Main_v4.c"
 218  0013  31CE        	set [78].3
 218  0014  0F64        	mov a,100
 218  0015  00D2        	mov [82],a
 218  0016  1F53        	clr [83]
 219  0017              #line 219 "D:\Wade\Project\Robot_Arm\Holtek_MCU\Program\Robot_Arm_Main_v4\Robot_Arm_Main_v4.c"
 219  0017  B1B2 0001   	lset [306].3
 219  0019  0F64        	mov a,100
 219  001A  80B6 0001   	lmov [310],a
 219  001C  9F37 0001   	lclr [311]
 220  001E              #line 220 "D:\Wade\Project\Robot_Arm\Holtek_MCU\Program\Robot_Arm_Main_v4\Robot_Arm_Main_v4.c"
 220  001E  B1B9 0001   	lset [313].3
 220  0020  0F50        	mov a,80
 220  0021  80BD 0001   	lmov [317],a
 220  0023  9F3E 0001   	lclr [318]
 221  0025              #line 221 "D:\Wade\Project\Robot_Arm\Holtek_MCU\Program\Robot_Arm_Main_v4\Robot_Arm_Main_v4.c"
 221  0025  31C6        	set [70].3
 221  0026  0F64        	mov a,100
 221  0027  00CA        	mov [74],a
"File: Robot_Arm_Main_v4.c  Assembler  Version HGASM0202      Page 8

 221  0028  1F4B        	clr [75]
 222  0029              #line 222 "D:\Wade\Project\Robot_Arm\Holtek_MCU\Program\Robot_Arm_Main_v4\Robot_Arm_Main_v4.c"
 222  0029  B19A 0001   	lset [282].3
 222  002B  0F64        	mov a,100
 222  002C  809E 0001   	lmov [286],a
 222  002E  9F1F 0001   	lclr [287]
 223  0030              #line 223 "D:\Wade\Project\Robot_Arm\Holtek_MCU\Program\Robot_Arm_Main_v4\Robot_Arm_Main_v4.c"
 223  0030  B1A2 0001   	lset [290].3
 223  0032  0F64        	mov a,100
 223  0033  80A6 0001   	lmov [294],a
 223  0035  9F27 0001   	lclr [295]
 223  0037  0003        	ret
 223  0038              _servo_setup endp
 223  0038              #line 223 "D:\Wade\Project\Robot_Arm\Holtek_MCU\Program\Robot_Arm_Main_v4\Robot_Arm_Main_v4.c"
 223  0038              #pragma debug scope 1 1
 223  0038              ___ptm3c0 equ [298]
 223  0038              ___ptm3c1 equ [299]
 223  0038              ___mfi4 equ [55]
 223  0038              public _ptm_setup
 223  0038              #pragma debug scope 9 1
 260  0038              #line 260 "D:\Wade\Project\Robot_Arm\Holtek_MCU\Program\Robot_Arm_Main_v4\Robot_Arm_Main_v4.c"
 260  0000              _ptm_setup .section 'code'
 260  0000              _ptm_setup proc
 261  0000              #line 261 "D:\Wade\Project\Robot_Arm\Holtek_MCU\Program\Robot_Arm_Main_v4\Robot_Arm_Main_v4.c"
 261  0000  9F2A 0001   	lclr [298]
 262  0002              #line 262 "D:\Wade\Project\Robot_Arm\Holtek_MCU\Program\Robot_Arm_Main_v4\Robot_Arm_Main_v4.c"
 262  0002  0FC1        	mov a,193
 262  0003  80AB 0001   	lmov [299],a
 263  0005              #line 263 "D:\Wade\Project\Robot_Arm\Holtek_MCU\Program\Robot_Arm_Main_v4\Robot_Arm_Main_v4.c"
 263  0005  3010        	set [16].0
 264  0006              #line 264 "D:\Wade\Project\Robot_Arm\Holtek_MCU\Program\Robot_Arm_Main_v4\Robot_Arm_Main_v4.c"
 264  0006  3113        	set [19].2
 265  0007              #line 265 "D:\Wade\Project\Robot_Arm\Holtek_MCU\Program\Robot_Arm_Main_v4\Robot_Arm_Main_v4.c"
 265  0007  30B7        	set [55].1
 266  0008              #line 266 "D:\Wade\Project\Robot_Arm\Holtek_MCU\Program\Robot_Arm_Main_v4\Robot_Arm_Main_v4.c"
 266  0008  36B7        	clr [55].5
 266  0009  0003        	ret
 266  000A              _ptm_setup endp
 266  000A              #line 266 "D:\Wade\Project\Robot_Arm\Holtek_MCU\Program\Robot_Arm_Main_v4\Robot_Arm_Main_v4.c"
 266  000A              #pragma debug scope 1 1
 266  000A              ___ptm3al equ [302]
 266  000A              ___ptm3ah equ [303]
 266  000A              public _ptm_delay
 266  000A              #pragma debug scope 10 1
 270  000A              #line 270 "D:\Wade\Project\Robot_Arm\Holtek_MCU\Program\Robot_Arm_Main_v4\Robot_Arm_Main_v4.c"
 270  0000              _ptm_delay .section 'code'
 270  0000              _ptm_delay proc
 270  0000              public _ptm_delay_2
 270  0000  0002[           local _ptm_delay_2 db 2 dup(?)	; 2,0
            00
            ]
 270  0002              #pragma debug variable 12 10 _ptm_delay_2+0 "tm"
 271  0002              #line 271 "D:\Wade\Project\Robot_Arm\Holtek_MCU\Program\Robot_Arm_Main_v4\Robot_Arm_Main_v4.c"
 271  0000  0700     R  	mov a,_ptm_delay_2[0]
 271  0001  80AE 0001   	lmov [302],a
 272  0003              #line 272 "D:\Wade\Project\Robot_Arm\Holtek_MCU\Program\Robot_Arm_Main_v4\Robot_Arm_Main_v4.c"
 272  0003  0700     R  	mov a,_ptm_delay_2[1]
 272  0004  80AF 0001   	lmov [303],a
 273  0006              #line 273 "D:\Wade\Project\Robot_Arm\Holtek_MCU\Program\Robot_Arm_Main_v4\Robot_Arm_Main_v4.c"
 273  0006  B1AA 0001   	lset [298].3
"File: Robot_Arm_Main_v4.c  Assembler  Version HGASM0202      Page 9

 273  0008              _L22:
 274  0008              #line 274 "D:\Wade\Project\Robot_Arm\Holtek_MCU\Program\Robot_Arm_Main_v4\Robot_Arm_Main_v4.c"
 274  0008  3AB7        	snz [55].5
 274  0009  2800     R  	jmp _L22
 275  000A              #line 275 "D:\Wade\Project\Robot_Arm\Holtek_MCU\Program\Robot_Arm_Main_v4\Robot_Arm_Main_v4.c"
 275  000A  B5AA 0001   	lclr [298].3
 276  000C              #line 276 "D:\Wade\Project\Robot_Arm\Holtek_MCU\Program\Robot_Arm_Main_v4\Robot_Arm_Main_v4.c"
 276  000C  36B7        	clr [55].5
 276  000D  0003        	ret
 276  000E              _ptm_delay endp
 276  000E              #line 276 "D:\Wade\Project\Robot_Arm\Holtek_MCU\Program\Robot_Arm_Main_v4\Robot_Arm_Main_v4.c"
 276  000E              #pragma debug scope 1 1
 276  000E              ___pd equ [30]
 276  000E              public _motor_callb
 276  000E              #pragma debug scope 11 1
 280  000E              #line 280 "D:\Wade\Project\Robot_Arm\Holtek_MCU\Program\Robot_Arm_Main_v4\Robot_Arm_Main_v4.c"
 280  0000              _motor_callb .section 'code'
 280  0000              _motor_callb proc
 281  0000              #line 281 "D:\Wade\Project\Robot_Arm\Holtek_MCU\Program\Robot_Arm_Main_v4\Robot_Arm_Main_v4.c"
 281  0000  369E        	clr [30].5
 282  0001              #line 282 "D:\Wade\Project\Robot_Arm\Holtek_MCU\Program\Robot_Arm_Main_v4\Robot_Arm_Main_v4.c"
 282  0001  361E        	clr [30].4
 283  0002              #line 283 "D:\Wade\Project\Robot_Arm\Holtek_MCU\Program\Robot_Arm_Main_v4\Robot_Arm_Main_v4.c"
 283  0002  2800     R  	jmp _L24
 283  0003              _L25:
 285  0003              #line 285 "D:\Wade\Project\Robot_Arm\Holtek_MCU\Program\Robot_Arm_Main_v4\Robot_Arm_Main_v4.c"
 285  0003  359E        	clr [30].3
 286  0004              #line 286 "D:\Wade\Project\Robot_Arm\Holtek_MCU\Program\Robot_Arm_Main_v4\Robot_Arm_Main_v4.c"
 286  0004  0F20        	mov a,32
 286  0005  0080     R  	mov _ptm_delay_2[0],a
 286  0006  0F03        	mov a,3
 286  0007  0080     R  	mov _ptm_delay_2[1],a
 286  0008              	fcall _ptm_delay
 287  000F              #line 287 "D:\Wade\Project\Robot_Arm\Holtek_MCU\Program\Robot_Arm_Main_v4\Robot_Arm_Main_v4.c"
 287  000F  319E        	set [30].3
 288  0010              #line 288 "D:\Wade\Project\Robot_Arm\Holtek_MCU\Program\Robot_Arm_Main_v4\Robot_Arm_Main_v4.c"
 288  0010  0F20        	mov a,32
 288  0011  0080     R  	mov _ptm_delay_2[0],a
 288  0012  0F03        	mov a,3
 288  0013  0080     R  	mov _ptm_delay_2[1],a
 288  0014              	fcall _ptm_delay
 288  001B              _L24:
 283  001B              #line 283 "D:\Wade\Project\Robot_Arm\Holtek_MCU\Program\Robot_Arm_Main_v4\Robot_Arm_Main_v4.c"
 283  001B  3F1E        	sz [30].6
 283  001C  2800     R  	jmp _L25
 283  001D  0003        	ret
 283  001E              _motor_callb endp
 283  001E              #line 283 "D:\Wade\Project\Robot_Arm\Holtek_MCU\Program\Robot_Arm_Main_v4\Robot_Arm_Main_v4.c"
 283  001E              #pragma debug scope 1 1
 283  001E              public _motor_deg
 283  001E              #pragma debug scope 12 1
 293  001E              #line 293 "D:\Wade\Project\Robot_Arm\Holtek_MCU\Program\Robot_Arm_Main_v4\Robot_Arm_Main_v4.c"
 293  0000              _motor_deg .section 'code'
 293  0000              _motor_deg proc
 293  0000              public _motor_deg_2
 293  0000  0007[           local _motor_deg_2 db 7 dup(?)	; 4,3
            00
            ]
 293  0007              #pragma debug variable 10 12 _motor_deg_2+0 "deg"
 293  0007              #pragma debug variable 12 12 _motor_deg_2+2 "time"
"File: Robot_Arm_Main_v4.c  Assembler  Version HGASM0202      Page 10

 293  0007              #pragma debug variable 10 12 _motor_deg_2+4 "j"
 295  0007              #line 295 "D:\Wade\Project\Robot_Arm\Holtek_MCU\Program\Robot_Arm_Main_v4\Robot_Arm_Main_v4.c"
 295  0000  1F00     R  	clr _motor_deg_2[4]
 295  0001  1F00     R  	clr _motor_deg_2[5]
 295  0002              _L27:
 295  0002              #line 295 "D:\Wade\Project\Robot_Arm\Holtek_MCU\Program\Robot_Arm_Main_v4\Robot_Arm_Main_v4.c"
 295  0002  0700     R  	mov a,_motor_deg_2[4]
 295  0003  0200     R  	sub a,_motor_deg_2[0]
 295  0004  0700     R  	mov a,_motor_deg_2[5]
 295  0005  1200     R  	sbc a,_motor_deg_2[1]
 295  0006  3F0A        	sz cz
 295  0007  2800     R  	jmp _L26
 295  0008  1F00     R  	clr _motor_deg_2[6]
 295  0009              _L30:
 299  0009              #line 299 "D:\Wade\Project\Robot_Arm\Holtek_MCU\Program\Robot_Arm_Main_v4\Robot_Arm_Main_v4.c"
 299  0009  359E        	clr [30].3
 300  000A              #line 300 "D:\Wade\Project\Robot_Arm\Holtek_MCU\Program\Robot_Arm_Main_v4\Robot_Arm_Main_v4.c"
 300  000A  0700     R  	mov a,_motor_deg_2[2]
 300  000B  0080     R  	mov _ptm_delay_2[0],a
 300  000C  0700     R  	mov a,_motor_deg_2[3]
 300  000D  0080     R  	mov _ptm_delay_2[1],a
 300  000E              	fcall _ptm_delay
 301  0015              #line 301 "D:\Wade\Project\Robot_Arm\Holtek_MCU\Program\Robot_Arm_Main_v4\Robot_Arm_Main_v4.c"
 301  0015  319E        	set [30].3
 302  0016              #line 302 "D:\Wade\Project\Robot_Arm\Holtek_MCU\Program\Robot_Arm_Main_v4\Robot_Arm_Main_v4.c"
 302  0016  0700     R  	mov a,_motor_deg_2[2]
 302  0017  0080     R  	mov _ptm_delay_2[0],a
 302  0018  0700     R  	mov a,_motor_deg_2[3]
 302  0019  0080     R  	mov _ptm_delay_2[1],a
 302  001A              	fcall _ptm_delay
 302  0021  1480     R  	inc _motor_deg_2[6]
 297  0022              #line 297 "D:\Wade\Project\Robot_Arm\Holtek_MCU\Program\Robot_Arm_Main_v4\Robot_Arm_Main_v4.c"
 297  0022  0700     R  	mov a,_motor_deg_2[6]
 297  0023  0A09        	sub a,9
 297  0024  390A        	snz z
 297  0025  2800     R  	jmp _L30
 295  0026              #line 295 "D:\Wade\Project\Robot_Arm\Holtek_MCU\Program\Robot_Arm_Main_v4\Robot_Arm_Main_v4.c"
 295  0026  1480     R  	inc _motor_deg_2[4]
 295  0027  3D0A        	sz z
 295  0028  1480     R  	inc _motor_deg_2[5]
 295  0029  2800     R  	jmp _L27
 295  002A              _L26:
 295  002A  0003        	ret
 295  002B              _motor_deg endp
 295  002B              #line 295 "D:\Wade\Project\Robot_Arm\Holtek_MCU\Program\Robot_Arm_Main_v4\Robot_Arm_Main_v4.c"
 295  002B              #pragma debug scope 1 1
 295  002B              public _delay
 295  002B              #pragma debug scope 13 1
 308  002B              #line 308 "D:\Wade\Project\Robot_Arm\Holtek_MCU\Program\Robot_Arm_Main_v4\Robot_Arm_Main_v4.c"
 308  0000              _delay .section 'code'
 308  0000              _delay proc
 308  0000              public _delay_2
 308  0000  0002[           local _delay_2 db 2 dup(?)	; 2,0
            00
            ]
 308  0002              #pragma debug variable 10 13 _delay_2+0 "var"
 310  0002              #line 310 "D:\Wade\Project\Robot_Arm\Holtek_MCU\Program\Robot_Arm_Main_v4\Robot_Arm_Main_v4.c"
 310  0000  1F00     E  	clr rb
 310  0001  1F00     E  	clr rc
 310  0002              _L32:
"File: Robot_Arm_Main_v4.c  Assembler  Version HGASM0202      Page 11

 310  0002              #line 310 "D:\Wade\Project\Robot_Arm\Holtek_MCU\Program\Robot_Arm_Main_v4\Robot_Arm_Main_v4.c"
 310  0002  0700     E  	mov a,rb
 310  0003  0200     R  	sub a,_delay_2[0]
 310  0004  0700     E  	mov a,rc
 310  0005  1200     R  	sbc a,_delay_2[1]
 310  0006  3F0A        	sz cz
 310  0007  2800     R  	jmp _L31
 310  0008  1F00     E  	clr ra
 310  0009              _L35:
 312  0009              #line 312 "D:\Wade\Project\Robot_Arm\Holtek_MCU\Program\Robot_Arm_Main_v4\Robot_Arm_Main_v4.c"
 312  0009              ;# 312 "D:\Wade\Project\Robot_Arm\Holtek_MCU\Program\Robot_Arm_Main_v4\Robot_Arm_Main_v4.c" 1
 312  0009  0000        	nop
 312  000A  1480     E  	inc ra
 311  000B              #line 311 "D:\Wade\Project\Robot_Arm\Holtek_MCU\Program\Robot_Arm_Main_v4\Robot_Arm_Main_v4.c"
 311  000B  0700     E  	mov a,ra
 311  000C  0A19        	sub a,25
 311  000D  390A        	snz z
 311  000E  2800     R  	jmp _L35
 310  000F              #line 310 "D:\Wade\Project\Robot_Arm\Holtek_MCU\Program\Robot_Arm_Main_v4\Robot_Arm_Main_v4.c"
 310  000F  1480     E  	inc rb
 310  0010  3D0A        	sz z
 310  0011  1480     E  	inc rc
 310  0012  2800     R  	jmp _L32
 310  0013              _L31:
 310  0013  0003        	ret
 310  0014              _delay endp
 310  0014              #line 310 "D:\Wade\Project\Robot_Arm\Holtek_MCU\Program\Robot_Arm_Main_v4\Robot_Arm_Main_v4.c"
 310  0014              #pragma debug scope 1 1
 310  0014              ___wdtc equ [62]
 310  0014              ___scc equ [58]
 310  0014              ___hircc equ [59]
 310  0014              ___pdc equ [31]
 310  0014              ___pdpu equ [32]
 310  0014              ___pcc equ [28]
 310  0014              public _main
 310  0014              #pragma debug scope 14 1
  42  0014              #line 42 "D:\Wade\Project\Robot_Arm\Holtek_MCU\Program\Robot_Arm_Main_v4\Robot_Arm_Main_v4.c"
  42  0014              IFDEF WITH_DEFAULT_STARTUP
  42  0014              extern _main_initial0:near
  42  0014              extern _main_startup:near
  42  0014              ENDIF
  42  0014              
  42  0014              ROMBANK 0 @start
  42  0000              @start .section com_l 'code'
  42  0000              _main_startup1:
  42  0000              @start .section com_e 'code'
  42  0000  0F00     R  	mov a,bank _main
  42  0001  008B        	mov bp,a
  42  0002  2800     R  	jmp _main
  42  0003              
  42  0000              _main .section 'code'
  42  0000              _main proc
  42  0000  00              local _main_2 db 1 dup(?)
  43  0001              #line 43 "D:\Wade\Project\Robot_Arm\Holtek_MCU\Program\Robot_Arm_Main_v4\Robot_Arm_Main_v4.c"
  43  0000  0FAB        	mov a,171
  43  0001  00BE        	mov [62],a
  45  0002              #line 45 "D:\Wade\Project\Robot_Arm\Holtek_MCU\Program\Robot_Arm_Main_v4\Robot_Arm_Main_v4.c"
  45  0002  0F01        	mov a,1
  45  0003  00BA        	mov [58],a
  46  0004              #line 46 "D:\Wade\Project\Robot_Arm\Holtek_MCU\Program\Robot_Arm_Main_v4\Robot_Arm_Main_v4.c"
"File: Robot_Arm_Main_v4.c  Assembler  Version HGASM0202      Page 12

  46  0004  0F03        	mov a,3
  46  0005  00BB        	mov [59],a
  49  0006              #line 49 "D:\Wade\Project\Robot_Arm\Holtek_MCU\Program\Robot_Arm_Main_v4\Robot_Arm_Main_v4.c"
  49  0006              	fcall _UART_Setup
  52  000D              #line 52 "D:\Wade\Project\Robot_Arm\Holtek_MCU\Program\Robot_Arm_Main_v4\Robot_Arm_Main_v4.c"
  52  000D              	fcall _servo_setup
  55  0014              #line 55 "D:\Wade\Project\Robot_Arm\Holtek_MCU\Program\Robot_Arm_Main_v4\Robot_Arm_Main_v4.c"
  55  0014  361F        	clr [31].4
  56  0015              #line 56 "D:\Wade\Project\Robot_Arm\Holtek_MCU\Program\Robot_Arm_Main_v4\Robot_Arm_Main_v4.c"
  56  0015  369F        	clr [31].5
  57  0016              #line 57 "D:\Wade\Project\Robot_Arm\Holtek_MCU\Program\Robot_Arm_Main_v4\Robot_Arm_Main_v4.c"
  57  0016  359F        	clr [31].3
  58  0017              #line 58 "D:\Wade\Project\Robot_Arm\Holtek_MCU\Program\Robot_Arm_Main_v4\Robot_Arm_Main_v4.c"
  58  0017  331F        	set [31].6
  59  0018              #line 59 "D:\Wade\Project\Robot_Arm\Holtek_MCU\Program\Robot_Arm_Main_v4\Robot_Arm_Main_v4.c"
  59  0018  3320        	set [32].6
  62  0019              #line 62 "D:\Wade\Project\Robot_Arm\Holtek_MCU\Program\Robot_Arm_Main_v4\Robot_Arm_Main_v4.c"
  62  0019  341C        	clr [28].0
  63  001A              #line 63 "D:\Wade\Project\Robot_Arm\Holtek_MCU\Program\Robot_Arm_Main_v4\Robot_Arm_Main_v4.c"
  63  001A  301B        	set [27].0
  70  001B              #line 70 "D:\Wade\Project\Robot_Arm\Holtek_MCU\Program\Robot_Arm_Main_v4\Robot_Arm_Main_v4.c"
  70  001B  1F00     E  	clr rb
  70  001C  1F00     E  	clr rc
  70  001D              _L38:
  71  001D              #line 71 "D:\Wade\Project\Robot_Arm\Holtek_MCU\Program\Robot_Arm_Main_v4\Robot_Arm_Main_v4.c"
  71  001D  0F00     R  	mov a,low offset _R_Data
  71  001E  0300     E  	add a,rb
  71  001F  0083        	mov mp,a
  71  0020  0F00     R  	mov a,high offset _R_Data
  71  0021  1300     E  	adc a,rc
  71  0022  0084        	mov sbp,a
  71  0023  0F20        	mov a,32
  71  0024  0082        	mov ir,a
  70  0025              #line 70 "D:\Wade\Project\Robot_Arm\Holtek_MCU\Program\Robot_Arm_Main_v4\Robot_Arm_Main_v4.c"
  70  0025  1480     E  	inc rb
  70  0026  3D0A        	sz z
  70  0027  1480     E  	inc rc
  70  0028  0700     E  	mov a,rb
  70  0029  0C0A        	xor a,10
  70  002A  0500     E  	or a,rc
  70  002B  390A        	snz z
  70  002C  2800     R  	jmp _L38
  74  002D              #line 74 "D:\Wade\Project\Robot_Arm\Holtek_MCU\Program\Robot_Arm_Main_v4\Robot_Arm_Main_v4.c"
  74  002D              	fcall _motor_callb
  75  0034              #line 75 "D:\Wade\Project\Robot_Arm\Holtek_MCU\Program\Robot_Arm_Main_v4\Robot_Arm_Main_v4.c"
  75  0034  321E        	set [30].4
  76  0035              #line 76 "D:\Wade\Project\Robot_Arm\Holtek_MCU\Program\Robot_Arm_Main_v4\Robot_Arm_Main_v4.c"
  76  0035  0F20        	mov a,32
  76  0036  0080     R  	mov _motor_deg_2[2],a
  76  0037  0F03        	mov a,3
  76  0038  0080     R  	mov _motor_deg_2[3],a
  76  0039  0F68        	mov a,104
  76  003A  0080     R  	mov _motor_deg_2[0],a
  76  003B  0F01        	mov a,1
  76  003C  0080     R  	mov _motor_deg_2[1],a
  76  003D              	fcall _motor_deg
  77  0044              #line 77 "D:\Wade\Project\Robot_Arm\Holtek_MCU\Program\Robot_Arm_Main_v4\Robot_Arm_Main_v4.c"
  77  0044  0F88        	mov a,-120
  77  0045  0080     R  	mov _delay_2[0],a
  77  0046  0F13        	mov a,19
"File: Robot_Arm_Main_v4.c  Assembler  Version HGASM0202      Page 13

  77  0047  0080     R  	mov _delay_2[1],a
  77  0048              	fcall _delay
  78  004F              #line 78 "D:\Wade\Project\Robot_Arm\Holtek_MCU\Program\Robot_Arm_Main_v4\Robot_Arm_Main_v4.c"
  78  004F  329E        	set [30].5
  78  0050              _L59:
  83  0050              #line 83 "D:\Wade\Project\Robot_Arm\Holtek_MCU\Program\Robot_Arm_Main_v4\Robot_Arm_Main_v4.c"
  83  0050  0700     R  	mov a,_R_Data[0]
  83  0051  0A41        	sub a,65
  83  0052  390A        	snz z
  83  0053  2800     R  	jmp _L39
  85  0054              #line 85 "D:\Wade\Project\Robot_Arm\Holtek_MCU\Program\Robot_Arm_Main_v4\Robot_Arm_Main_v4.c"
  85  0054  0F30        	mov a,48
  85  0055  0300     R  	add a,_R_Data[3]
  85  0056  0080     E  	mov rf,a
  85  0057  0FEB        	mov a,235
  85  0058  1F00     E  	clr rg
  85  0059  1380     E  	adcm a,rg
  85  005A  1B10        	rrca intc
  85  005B  3410        	clr intc.0
  85  005C  0700     R  	mov a,_R_Data[1]
  85  005D  00D9        	mov mduwr0,a
  85  005E  0F64        	mov a,100
  85  005F  00DD        	mov mduwr4,a
  85  0060  1F5A        	clr mduwr1
  85  0061  0F00        	mov a,0
  85  0062  00DE        	mov mduwr5,a
  85  0063  0F06        	mov a,6
  85  0064              _LI1:
  85  0064  1785        	sdz acc
  85  0065  2800     R  	jmp _LI1
  85  0066  0759        	mov a,mduwr0
  85  0067  0080     E  	mov rb,a
  85  0068  075A        	mov a,mduwr1
  85  0069  0080     E  	mov rc,a
  85  006A  3C0A        	sz c
  85  006B  3010        	set intc.0
  85  006C  0700     E  	mov a,rb
  85  006D  0380     E  	addm a,rf
  85  006E  0700     E  	mov a,rc
  85  006F  1380     E  	adcm a,rg
  85  0070  0700     R  	mov a,_R_Data[2]
  85  0071  0080     E  	mov rd,a
  85  0072  1F00     E  	clr re
  85  0073  340A        	clr c
  85  0074  1A00     E  	rlca rd
  85  0075  0080     E  	mov rb,a
  85  0076  1A00     E  	rlca re
  85  0077  0080     E  	mov rc,a
  85  0078  340A        	clr c
  85  0079  1A80     E  	rlc rb
  85  007A  1A80     E  	rlc rc
  85  007B  0700     E  	mov a,rd
  85  007C  0380     E  	addm a,rb
  85  007D  0700     E  	mov a,re
  85  007E  1380     E  	adcm a,rc
  85  007F  340A        	clr c
  85  0080  1A80     E  	rlc rb
  85  0081  1A80     E  	rlc rc
  85  0082  0700     E  	mov a,rf
  85  0083  0380     E  	addm a,rb
"File: Robot_Arm_Main_v4.c  Assembler  Version HGASM0202      Page 14

  85  0084  0700     E  	mov a,rg
  85  0085  1380     E  	adcm a,rc
  86  0086              #line 86 "D:\Wade\Project\Robot_Arm\Holtek_MCU\Program\Robot_Arm_Main_v4\Robot_Arm_Main_v4.c"
  86  0086  0FE6        	mov a,230
  86  0087  0200     E  	sub a,rb
  86  0088  00D2        	mov [82],a
  86  0089  1F53        	clr [83]
  87  008A              #line 87 "D:\Wade\Project\Robot_Arm\Holtek_MCU\Program\Robot_Arm_Main_v4\Robot_Arm_Main_v4.c"
  87  008A  0F01        	mov a,1
  87  008B  0080     R  	mov _delay_2[0],a
  87  008C  1F00     R  	clr _delay_2[1]
  87  008D              	fcall _delay
  87  0094              _L39:
  89  0094              #line 89 "D:\Wade\Project\Robot_Arm\Holtek_MCU\Program\Robot_Arm_Main_v4\Robot_Arm_Main_v4.c"
  89  0094  0700     R  	mov a,_R_Data[0]
  89  0095  0A42        	sub a,66
  89  0096  390A        	snz z
  89  0097  2800     R  	jmp _L40
  91  0098              #line 91 "D:\Wade\Project\Robot_Arm\Holtek_MCU\Program\Robot_Arm_Main_v4\Robot_Arm_Main_v4.c"
  91  0098  0F30        	mov a,48
  91  0099  0300     R  	add a,_R_Data[3]
  91  009A  0080     E  	mov rf,a
  91  009B  0FEB        	mov a,235
  91  009C  1F00     E  	clr rg
  91  009D  1380     E  	adcm a,rg
  91  009E  1B10        	rrca intc
  91  009F  3410        	clr intc.0
  91  00A0  0700     R  	mov a,_R_Data[1]
  91  00A1  00D9        	mov mduwr0,a
  91  00A2  0F64        	mov a,100
  91  00A3  00DD        	mov mduwr4,a
  91  00A4  1F5A        	clr mduwr1
  91  00A5  0F00        	mov a,0
  91  00A6  00DE        	mov mduwr5,a
  91  00A7  0F06        	mov a,6
  91  00A8              _LI2:
  91  00A8  1785        	sdz acc
  91  00A9  2800     R  	jmp _LI2
  91  00AA  0759        	mov a,mduwr0
  91  00AB  0080     E  	mov rb,a
  91  00AC  075A        	mov a,mduwr1
  91  00AD  0080     E  	mov rc,a
  91  00AE  3C0A        	sz c
  91  00AF  3010        	set intc.0
  91  00B0  0700     E  	mov a,rb
  91  00B1  0380     E  	addm a,rf
  91  00B2  0700     E  	mov a,rc
  91  00B3  1380     E  	adcm a,rg
  91  00B4  0700     R  	mov a,_R_Data[2]
  91  00B5  0080     E  	mov rd,a
  91  00B6  1F00     E  	clr re
  91  00B7  340A        	clr c
  91  00B8  1A00     E  	rlca rd
  91  00B9  0080     E  	mov rb,a
  91  00BA  1A00     E  	rlca re
  91  00BB  0080     E  	mov rc,a
  91  00BC  340A        	clr c
  91  00BD  1A80     E  	rlc rb
  91  00BE  1A80     E  	rlc rc
  91  00BF  0700     E  	mov a,rd
"File: Robot_Arm_Main_v4.c  Assembler  Version HGASM0202      Page 15

  91  00C0  0380     E  	addm a,rb
  91  00C1  0700     E  	mov a,re
  91  00C2  1380     E  	adcm a,rc
  91  00C3  340A        	clr c
  91  00C4  1A80     E  	rlc rb
  91  00C5  1A80     E  	rlc rc
  91  00C6  0700     E  	mov a,rf
  91  00C7  0380     E  	addm a,rb
  91  00C8  0700     E  	mov a,rg
  91  00C9  1380     E  	adcm a,rc
  92  00CA              #line 92 "D:\Wade\Project\Robot_Arm\Holtek_MCU\Program\Robot_Arm_Main_v4\Robot_Arm_Main_v4.c"
  92  00CA  0FE6        	mov a,230
  92  00CB  0200     E  	sub a,rb
  92  00CC  80B6 0001   	lmov [310],a
  92  00CE  9F37 0001   	lclr [311]
  93  00D0              #line 93 "D:\Wade\Project\Robot_Arm\Holtek_MCU\Program\Robot_Arm_Main_v4\Robot_Arm_Main_v4.c"
  93  00D0  0F01        	mov a,1
  93  00D1  0080     R  	mov _delay_2[0],a
  93  00D2  1F00     R  	clr _delay_2[1]
  93  00D3              	fcall _delay
  93  00DA              _L40:
  95  00DA              #line 95 "D:\Wade\Project\Robot_Arm\Holtek_MCU\Program\Robot_Arm_Main_v4\Robot_Arm_Main_v4.c"
  95  00DA  0700     R  	mov a,_R_Data[0]
  95  00DB  0A43        	sub a,67
  95  00DC  390A        	snz z
  95  00DD  2800     R  	jmp _L41
  97  00DE              #line 97 "D:\Wade\Project\Robot_Arm\Holtek_MCU\Program\Robot_Arm_Main_v4\Robot_Arm_Main_v4.c"
  97  00DE  0F30        	mov a,48
  97  00DF  0300     R  	add a,_R_Data[3]
  97  00E0  0080     E  	mov rf,a
  97  00E1  0FEB        	mov a,235
  97  00E2  1F00     E  	clr rg
  97  00E3  1380     E  	adcm a,rg
  97  00E4  1B10        	rrca intc
  97  00E5  3410        	clr intc.0
  97  00E6  0700     R  	mov a,_R_Data[1]
  97  00E7  00D9        	mov mduwr0,a
  97  00E8  0F64        	mov a,100
  97  00E9  00DD        	mov mduwr4,a
  97  00EA  1F5A        	clr mduwr1
  97  00EB  0F00        	mov a,0
  97  00EC  00DE        	mov mduwr5,a
  97  00ED  0F06        	mov a,6
  97  00EE              _LI3:
  97  00EE  1785        	sdz acc
  97  00EF  2800     R  	jmp _LI3
  97  00F0  0759        	mov a,mduwr0
  97  00F1  0080     E  	mov rb,a
  97  00F2  075A        	mov a,mduwr1
  97  00F3  0080     E  	mov rc,a
  97  00F4  3C0A        	sz c
  97  00F5  3010        	set intc.0
  97  00F6  0700     E  	mov a,rb
  97  00F7  0380     E  	addm a,rf
  97  00F8  0700     E  	mov a,rc
  97  00F9  1380     E  	adcm a,rg
  97  00FA  0700     R  	mov a,_R_Data[2]
  97  00FB  0080     E  	mov rd,a
  97  00FC  1F00     E  	clr re
  97  00FD  340A        	clr c
"File: Robot_Arm_Main_v4.c  Assembler  Version HGASM0202      Page 16

  97  00FE  1A00     E  	rlca rd
  97  00FF  0080     E  	mov rb,a
  97  0100  1A00     E  	rlca re
  97  0101  0080     E  	mov rc,a
  97  0102  340A        	clr c
  97  0103  1A80     E  	rlc rb
  97  0104  1A80     E  	rlc rc
  97  0105  0700     E  	mov a,rd
  97  0106  0380     E  	addm a,rb
  97  0107  0700     E  	mov a,re
  97  0108  1380     E  	adcm a,rc
  97  0109  340A        	clr c
  97  010A  1A80     E  	rlc rb
  97  010B  1A80     E  	rlc rc
  97  010C  0700     E  	mov a,rf
  97  010D  0380     E  	addm a,rb
  97  010E  0700     E  	mov a,rg
  97  010F  1380     E  	adcm a,rc
  98  0110              #line 98 "D:\Wade\Project\Robot_Arm\Holtek_MCU\Program\Robot_Arm_Main_v4\Robot_Arm_Main_v4.c"
  98  0110  0FD2        	mov a,210
  98  0111  0200     E  	sub a,rb
  98  0112  80BD 0001   	lmov [317],a
  98  0114  9F3E 0001   	lclr [318]
  99  0116              #line 99 "D:\Wade\Project\Robot_Arm\Holtek_MCU\Program\Robot_Arm_Main_v4\Robot_Arm_Main_v4.c"
  99  0116  0F01        	mov a,1
  99  0117  0080     R  	mov _delay_2[0],a
  99  0118  1F00     R  	clr _delay_2[1]
  99  0119              	fcall _delay
  99  0120              _L41:
 101  0120              #line 101 "D:\Wade\Project\Robot_Arm\Holtek_MCU\Program\Robot_Arm_Main_v4\Robot_Arm_Main_v4.c"
 101  0120  0700     R  	mov a,_R_Data[0]
 101  0121  0A44        	sub a,68
 101  0122  390A        	snz z
 101  0123  2800     R  	jmp _L42
 103  0124              #line 103 "D:\Wade\Project\Robot_Arm\Holtek_MCU\Program\Robot_Arm_Main_v4\Robot_Arm_Main_v4.c"
 103  0124  0F30        	mov a,48
 103  0125  0300     R  	add a,_R_Data[3]
 103  0126  0080     E  	mov rf,a
 103  0127  0FEB        	mov a,235
 103  0128  1F00     E  	clr rg
 103  0129  1380     E  	adcm a,rg
 103  012A  1B10        	rrca intc
 103  012B  3410        	clr intc.0
 103  012C  0700     R  	mov a,_R_Data[1]
 103  012D  00D9        	mov mduwr0,a
 103  012E  0F64        	mov a,100
 103  012F  00DD        	mov mduwr4,a
 103  0130  1F5A        	clr mduwr1
 103  0131  0F00        	mov a,0
 103  0132  00DE        	mov mduwr5,a
 103  0133  0F06        	mov a,6
 103  0134              _LI4:
 103  0134  1785        	sdz acc
 103  0135  2800     R  	jmp _LI4
 103  0136  0759        	mov a,mduwr0
 103  0137  0080     E  	mov rb,a
 103  0138  075A        	mov a,mduwr1
 103  0139  0080     E  	mov rc,a
 103  013A  3C0A        	sz c
 103  013B  3010        	set intc.0
"File: Robot_Arm_Main_v4.c  Assembler  Version HGASM0202      Page 17

 103  013C  0700     E  	mov a,rb
 103  013D  0380     E  	addm a,rf
 103  013E  0700     E  	mov a,rc
 103  013F  1380     E  	adcm a,rg
 103  0140  0700     R  	mov a,_R_Data[2]
 103  0141  0080     E  	mov rd,a
 103  0142  1F00     E  	clr re
 103  0143  340A        	clr c
 103  0144  1A00     E  	rlca rd
 103  0145  0080     E  	mov rb,a
 103  0146  1A00     E  	rlca re
 103  0147  0080     E  	mov rc,a
 103  0148  340A        	clr c
 103  0149  1A80     E  	rlc rb
 103  014A  1A80     E  	rlc rc
 103  014B  0700     E  	mov a,rd
 103  014C  0380     E  	addm a,rb
 103  014D  0700     E  	mov a,re
 103  014E  1380     E  	adcm a,rc
 103  014F  340A        	clr c
 103  0150  1A80     E  	rlc rb
 103  0151  1A80     E  	rlc rc
 103  0152  0700     E  	mov a,rf
 103  0153  0380     E  	addm a,rb
 103  0154  0700     E  	mov a,rg
 103  0155  1380     E  	adcm a,rc
 104  0156              #line 104 "D:\Wade\Project\Robot_Arm\Holtek_MCU\Program\Robot_Arm_Main_v4\Robot_Arm_Main_v4.c"
 104  0156  0FE6        	mov a,230
 104  0157  0200     E  	sub a,rb
 104  0158  00CA        	mov [74],a
 104  0159  1F4B        	clr [75]
 105  015A              #line 105 "D:\Wade\Project\Robot_Arm\Holtek_MCU\Program\Robot_Arm_Main_v4\Robot_Arm_Main_v4.c"
 105  015A  0F01        	mov a,1
 105  015B  0080     R  	mov _delay_2[0],a
 105  015C  1F00     R  	clr _delay_2[1]
 105  015D              	fcall _delay
 105  0164              _L42:
 107  0164              #line 107 "D:\Wade\Project\Robot_Arm\Holtek_MCU\Program\Robot_Arm_Main_v4\Robot_Arm_Main_v4.c"
 107  0164  0700     R  	mov a,_R_Data[0]
 107  0165  0A45        	sub a,69
 107  0166  390A        	snz z
 107  0167  2800     R  	jmp _L43
 109  0168              #line 109 "D:\Wade\Project\Robot_Arm\Holtek_MCU\Program\Robot_Arm_Main_v4\Robot_Arm_Main_v4.c"
 109  0168  0F30        	mov a,48
 109  0169  0300     R  	add a,_R_Data[3]
 109  016A  0080     E  	mov rf,a
 109  016B  0FEB        	mov a,235
 109  016C  1F00     E  	clr rg
 109  016D  1380     E  	adcm a,rg
 109  016E  1B10        	rrca intc
 109  016F  3410        	clr intc.0
 109  0170  0700     R  	mov a,_R_Data[1]
 109  0171  00D9        	mov mduwr0,a
 109  0172  0F64        	mov a,100
 109  0173  00DD        	mov mduwr4,a
 109  0174  1F5A        	clr mduwr1
 109  0175  0F00        	mov a,0
 109  0176  00DE        	mov mduwr5,a
 109  0177  0F06        	mov a,6
 109  0178              _LI5:
"File: Robot_Arm_Main_v4.c  Assembler  Version HGASM0202      Page 18

 109  0178  1785        	sdz acc
 109  0179  2800     R  	jmp _LI5
 109  017A  0759        	mov a,mduwr0
 109  017B  0080     E  	mov rb,a
 109  017C  075A        	mov a,mduwr1
 109  017D  0080     E  	mov rc,a
 109  017E  3C0A        	sz c
 109  017F  3010        	set intc.0
 109  0180  0700     E  	mov a,rb
 109  0181  0380     E  	addm a,rf
 109  0182  0700     E  	mov a,rc
 109  0183  1380     E  	adcm a,rg
 109  0184  0700     R  	mov a,_R_Data[2]
 109  0185  0080     E  	mov rd,a
 109  0186  1F00     E  	clr re
 109  0187  340A        	clr c
 109  0188  1A00     E  	rlca rd
 109  0189  0080     E  	mov rb,a
 109  018A  1A00     E  	rlca re
 109  018B  0080     E  	mov rc,a
 109  018C  340A        	clr c
 109  018D  1A80     E  	rlc rb
 109  018E  1A80     E  	rlc rc
 109  018F  0700     E  	mov a,rd
 109  0190  0380     E  	addm a,rb
 109  0191  0700     E  	mov a,re
 109  0192  1380     E  	adcm a,rc
 109  0193  340A        	clr c
 109  0194  1A80     E  	rlc rb
 109  0195  1A80     E  	rlc rc
 109  0196  0700     E  	mov a,rf
 109  0197  0380     E  	addm a,rb
 109  0198  0700     E  	mov a,rg
 109  0199  1380     E  	adcm a,rc
 110  019A              #line 110 "D:\Wade\Project\Robot_Arm\Holtek_MCU\Program\Robot_Arm_Main_v4\Robot_Arm_Main_v4.c"
 110  019A  0FE6        	mov a,230
 110  019B  0200     E  	sub a,rb
 110  019C  809E 0001   	lmov [286],a
 110  019E  9F1F 0001   	lclr [287]
 111  01A0              #line 111 "D:\Wade\Project\Robot_Arm\Holtek_MCU\Program\Robot_Arm_Main_v4\Robot_Arm_Main_v4.c"
 111  01A0  0F01        	mov a,1
 111  01A1  0080     R  	mov _delay_2[0],a
 111  01A2  1F00     R  	clr _delay_2[1]
 111  01A3              	fcall _delay
 111  01AA              _L43:
 114  01AA              #line 114 "D:\Wade\Project\Robot_Arm\Holtek_MCU\Program\Robot_Arm_Main_v4\Robot_Arm_Main_v4.c"
 114  01AA  0700     R  	mov a,_R_Data[0]
 114  01AB  0A46        	sub a,70
 114  01AC  390A        	snz z
 114  01AD  2800     R  	jmp _L44
 116  01AE              #line 116 "D:\Wade\Project\Robot_Arm\Holtek_MCU\Program\Robot_Arm_Main_v4\Robot_Arm_Main_v4.c"
 116  01AE  0F30        	mov a,48
 116  01AF  0300     R  	add a,_R_Data[3]
 116  01B0  0080     E  	mov rf,a
 116  01B1  0FEB        	mov a,235
 116  01B2  1F00     E  	clr rg
 116  01B3  1380     E  	adcm a,rg
 116  01B4  1B10        	rrca intc
 116  01B5  3410        	clr intc.0
 116  01B6  0700     R  	mov a,_R_Data[1]
"File: Robot_Arm_Main_v4.c  Assembler  Version HGASM0202      Page 19

 116  01B7  00D9        	mov mduwr0,a
 116  01B8  0F64        	mov a,100
 116  01B9  00DD        	mov mduwr4,a
 116  01BA  1F5A        	clr mduwr1
 116  01BB  0F00        	mov a,0
 116  01BC  00DE        	mov mduwr5,a
 116  01BD  0F06        	mov a,6
 116  01BE              _LI6:
 116  01BE  1785        	sdz acc
 116  01BF  2800     R  	jmp _LI6
 116  01C0  0759        	mov a,mduwr0
 116  01C1  0080     E  	mov rb,a
 116  01C2  075A        	mov a,mduwr1
 116  01C3  0080     E  	mov rc,a
 116  01C4  3C0A        	sz c
 116  01C5  3010        	set intc.0
 116  01C6  0700     E  	mov a,rb
 116  01C7  0380     E  	addm a,rf
 116  01C8  0700     E  	mov a,rc
 116  01C9  1380     E  	adcm a,rg
 116  01CA  0700     R  	mov a,_R_Data[2]
 116  01CB  0080     E  	mov rd,a
 116  01CC  1F00     E  	clr re
 116  01CD  340A        	clr c
 116  01CE  1A00     E  	rlca rd
 116  01CF  0080     E  	mov rb,a
 116  01D0  1A00     E  	rlca re
 116  01D1  0080     E  	mov rc,a
 116  01D2  340A        	clr c
 116  01D3  1A80     E  	rlc rb
 116  01D4  1A80     E  	rlc rc
 116  01D5  0700     E  	mov a,rd
 116  01D6  0380     E  	addm a,rb
 116  01D7  0700     E  	mov a,re
 116  01D8  1380     E  	adcm a,rc
 116  01D9  340A        	clr c
 116  01DA  1A80     E  	rlc rb
 116  01DB  1A80     E  	rlc rc
 116  01DC  0700     E  	mov a,rf
 116  01DD  0380     E  	addm a,rb
 116  01DE  0700     E  	mov a,rg
 116  01DF  1380     E  	adcm a,rc
 117  01E0              #line 117 "D:\Wade\Project\Robot_Arm\Holtek_MCU\Program\Robot_Arm_Main_v4\Robot_Arm_Main_v4.c"
 117  01E0  0700     E  	mov a,rb
 117  01E1  0B64        	add a,100
 117  01E2  80A6 0001   	lmov [294],a
 117  01E4  9F27 0001   	lclr [295]
 118  01E6              #line 118 "D:\Wade\Project\Robot_Arm\Holtek_MCU\Program\Robot_Arm_Main_v4\Robot_Arm_Main_v4.c"
 118  01E6  0F01        	mov a,1
 118  01E7  0080     R  	mov _delay_2[0],a
 118  01E8  1F00     R  	clr _delay_2[1]
 118  01E9              	fcall _delay
 118  01F0              _L44:
 122  01F0              #line 122 "D:\Wade\Project\Robot_Arm\Holtek_MCU\Program\Robot_Arm_Main_v4\Robot_Arm_Main_v4.c"
 122  01F0  0700     R  	mov a,_Data[0]
 122  01F1  0A4C        	sub a,76
 122  01F2  3D0A        	sz z
 122  01F3  2800     R  	jmp _L45
 122  01F4              _L48:
 131  01F4              #line 131 "D:\Wade\Project\Robot_Arm\Holtek_MCU\Program\Robot_Arm_Main_v4\Robot_Arm_Main_v4.c"
"File: Robot_Arm_Main_v4.c  Assembler  Version HGASM0202      Page 20

 131  01F4  0700     R  	mov a,_Data[0]
 131  01F5  0A53        	sub a,83
 131  01F6  390A        	snz z
 131  01F7  2800     R  	jmp _L47
 131  01F8  2800     R  	jmp _L70
 131  01F9              _L45:
 124  01F9              #line 124 "D:\Wade\Project\Robot_Arm\Holtek_MCU\Program\Robot_Arm_Main_v4\Robot_Arm_Main_v4.c"
 124  01F9  341B        	clr [27].0
 125  01FA              #line 125 "D:\Wade\Project\Robot_Arm\Holtek_MCU\Program\Robot_Arm_Main_v4\Robot_Arm_Main_v4.c"
 125  01FA  369E        	clr [30].5
 126  01FB              #line 126 "D:\Wade\Project\Robot_Arm\Holtek_MCU\Program\Robot_Arm_Main_v4\Robot_Arm_Main_v4.c"
 126  01FB  321E        	set [30].4
 127  01FC              #line 127 "D:\Wade\Project\Robot_Arm\Holtek_MCU\Program\Robot_Arm_Main_v4\Robot_Arm_Main_v4.c"
 127  01FC  0F01        	mov a,1
 127  01FD  0080     R  	mov _delay_2[0],a
 127  01FE  1F00     R  	clr _delay_2[1]
 127  01FF              	fcall _delay
 128  0206              #line 128 "D:\Wade\Project\Robot_Arm\Holtek_MCU\Program\Robot_Arm_Main_v4\Robot_Arm_Main_v4.c"
 128  0206  1F00     E  	clr rb
 128  0207  1F00     E  	clr rc
 128  0208              _L49:
 129  0208              #line 129 "D:\Wade\Project\Robot_Arm\Holtek_MCU\Program\Robot_Arm_Main_v4\Robot_Arm_Main_v4.c"
 129  0208  0F00     R  	mov a,low offset _Data
 129  0209  0300     E  	add a,rb
 129  020A  0083        	mov mp,a
 129  020B  0F00     R  	mov a,high offset _Data
 129  020C  1300     E  	adc a,rc
 129  020D  0084        	mov sbp,a
 129  020E  0F20        	mov a,32
 129  020F  0082        	mov ir,a
 128  0210              #line 128 "D:\Wade\Project\Robot_Arm\Holtek_MCU\Program\Robot_Arm_Main_v4\Robot_Arm_Main_v4.c"
 128  0210  1480     E  	inc rb
 128  0211  3D0A        	sz z
 128  0212  1480     E  	inc rc
 128  0213  0700     E  	mov a,rb
 128  0214  0C0A        	xor a,10
 128  0215  0500     E  	or a,rc
 128  0216  390A        	snz z
 128  0217  2800     R  	jmp _L49
 128  0218  2800     R  	jmp _L48
 128  0219              _L70:
 133  0219              #line 133 "D:\Wade\Project\Robot_Arm\Holtek_MCU\Program\Robot_Arm_Main_v4\Robot_Arm_Main_v4.c"
 133  0219  301B        	set [27].0
 134  021A              #line 134 "D:\Wade\Project\Robot_Arm\Holtek_MCU\Program\Robot_Arm_Main_v4\Robot_Arm_Main_v4.c"
 134  021A  329E        	set [30].5
 135  021B              #line 135 "D:\Wade\Project\Robot_Arm\Holtek_MCU\Program\Robot_Arm_Main_v4\Robot_Arm_Main_v4.c"
 135  021B  0F01        	mov a,1
 135  021C  0080     R  	mov _delay_2[0],a
 135  021D  1F00     R  	clr _delay_2[1]
 135  021E              	fcall _delay
 136  0225              #line 136 "D:\Wade\Project\Robot_Arm\Holtek_MCU\Program\Robot_Arm_Main_v4\Robot_Arm_Main_v4.c"
 136  0225  1F00     E  	clr rb
 136  0226  1F00     E  	clr rc
 136  0227              _L52:
 137  0227              #line 137 "D:\Wade\Project\Robot_Arm\Holtek_MCU\Program\Robot_Arm_Main_v4\Robot_Arm_Main_v4.c"
 137  0227  0F00     R  	mov a,low offset _Data
 137  0228  0300     E  	add a,rb
 137  0229  0083        	mov mp,a
 137  022A  0F00     R  	mov a,high offset _Data
 137  022B  1300     E  	adc a,rc
"File: Robot_Arm_Main_v4.c  Assembler  Version HGASM0202      Page 21

 137  022C  0084        	mov sbp,a
 137  022D  0F20        	mov a,32
 137  022E  0082        	mov ir,a
 136  022F              #line 136 "D:\Wade\Project\Robot_Arm\Holtek_MCU\Program\Robot_Arm_Main_v4\Robot_Arm_Main_v4.c"
 136  022F  1480     E  	inc rb
 136  0230  3D0A        	sz z
 136  0231  1480     E  	inc rc
 136  0232  0700     E  	mov a,rb
 136  0233  0C0A        	xor a,10
 136  0234  0500     E  	or a,rc
 136  0235  390A        	snz z
 136  0236  2800     R  	jmp _L52
 136  0237              _L47:
 139  0237              #line 139 "D:\Wade\Project\Robot_Arm\Holtek_MCU\Program\Robot_Arm_Main_v4\Robot_Arm_Main_v4.c"
 139  0237  0700     R  	mov a,_Data[0]
 139  0238  0A52        	sub a,82
 139  0239  390A        	snz z
 139  023A  2800     R  	jmp _L51
 141  023B              #line 141 "D:\Wade\Project\Robot_Arm\Holtek_MCU\Program\Robot_Arm_Main_v4\Robot_Arm_Main_v4.c"
 141  023B  369E        	clr [30].5
 142  023C              #line 142 "D:\Wade\Project\Robot_Arm\Holtek_MCU\Program\Robot_Arm_Main_v4\Robot_Arm_Main_v4.c"
 142  023C  361E        	clr [30].4
 143  023D              #line 143 "D:\Wade\Project\Robot_Arm\Holtek_MCU\Program\Robot_Arm_Main_v4\Robot_Arm_Main_v4.c"
 143  023D  0F01        	mov a,1
 143  023E  0080     R  	mov _delay_2[0],a
 143  023F  1F00     R  	clr _delay_2[1]
 143  0240              	fcall _delay
 144  0247              #line 144 "D:\Wade\Project\Robot_Arm\Holtek_MCU\Program\Robot_Arm_Main_v4\Robot_Arm_Main_v4.c"
 144  0247  1F00     E  	clr rb
 144  0248  1F00     E  	clr rc
 144  0249              _L55:
 145  0249              #line 145 "D:\Wade\Project\Robot_Arm\Holtek_MCU\Program\Robot_Arm_Main_v4\Robot_Arm_Main_v4.c"
 145  0249  0F00     R  	mov a,low offset _Data
 145  024A  0300     E  	add a,rb
 145  024B  0083        	mov mp,a
 145  024C  0F00     R  	mov a,high offset _Data
 145  024D  1300     E  	adc a,rc
 145  024E  0084        	mov sbp,a
 145  024F  0F20        	mov a,32
 145  0250  0082        	mov ir,a
 144  0251              #line 144 "D:\Wade\Project\Robot_Arm\Holtek_MCU\Program\Robot_Arm_Main_v4\Robot_Arm_Main_v4.c"
 144  0251  1480     E  	inc rb
 144  0252  3D0A        	sz z
 144  0253  1480     E  	inc rc
 144  0254  0700     E  	mov a,rb
 144  0255  0C0A        	xor a,10
 144  0256  0500     E  	or a,rc
 144  0257  390A        	snz z
 144  0258  2800     R  	jmp _L55
 144  0259              _L51:
 149  0259              #line 149 "D:\Wade\Project\Robot_Arm\Holtek_MCU\Program\Robot_Arm_Main_v4\Robot_Arm_Main_v4.c"
 149  0259  0700     R  	mov a,_Data[0]
 149  025A  0A4B        	sub a,75
 149  025B  390A        	snz z
 149  025C  2800     R  	jmp _L54
 149  025D  1F00     E  	clr rb
 149  025E  1F00     E  	clr rc
 149  025F              _L57:
 152  025F              #line 152 "D:\Wade\Project\Robot_Arm\Holtek_MCU\Program\Robot_Arm_Main_v4\Robot_Arm_Main_v4.c"
 152  025F  0F00     R  	mov a,low offset _Data
"File: Robot_Arm_Main_v4.c  Assembler  Version HGASM0202      Page 22

 152  0260  0300     E  	add a,rb
 152  0261  0083        	mov mp,a
 152  0262  0F00     R  	mov a,high offset _Data
 152  0263  1300     E  	adc a,rc
 152  0264  0084        	mov sbp,a
 152  0265  0F20        	mov a,32
 152  0266  0082        	mov ir,a
 151  0267              #line 151 "D:\Wade\Project\Robot_Arm\Holtek_MCU\Program\Robot_Arm_Main_v4\Robot_Arm_Main_v4.c"
 151  0267  1480     E  	inc rb
 151  0268  3D0A        	sz z
 151  0269  1480     E  	inc rc
 151  026A  0700     E  	mov a,rb
 151  026B  0C0A        	xor a,10
 151  026C  0500     E  	or a,rc
 151  026D  390A        	snz z
 151  026E  2800     R  	jmp _L57
 153  026F              #line 153 "D:\Wade\Project\Robot_Arm\Holtek_MCU\Program\Robot_Arm_Main_v4\Robot_Arm_Main_v4.c"
 153  026F  0FBE        	mov a,190
 153  0270  00D2        	mov [82],a
 153  0271  1F53        	clr [83]
 154  0272              #line 154 "D:\Wade\Project\Robot_Arm\Holtek_MCU\Program\Robot_Arm_Main_v4\Robot_Arm_Main_v4.c"
 154  0272  0FBE        	mov a,190
 154  0273  80B6 0001   	lmov [310],a
 154  0275  9F37 0001   	lclr [311]
 155  0277              #line 155 "D:\Wade\Project\Robot_Arm\Holtek_MCU\Program\Robot_Arm_Main_v4\Robot_Arm_Main_v4.c"
 155  0277  0FAA        	mov a,170
 155  0278  80BD 0001   	lmov [317],a
 155  027A  9F3E 0001   	lclr [318]
 156  027C              #line 156 "D:\Wade\Project\Robot_Arm\Holtek_MCU\Program\Robot_Arm_Main_v4\Robot_Arm_Main_v4.c"
 156  027C  0FBE        	mov a,190
 156  027D  00CA        	mov [74],a
 156  027E  1F4B        	clr [75]
 157  027F              #line 157 "D:\Wade\Project\Robot_Arm\Holtek_MCU\Program\Robot_Arm_Main_v4\Robot_Arm_Main_v4.c"
 157  027F  0FBE        	mov a,190
 157  0280  809E 0001   	lmov [286],a
 157  0282  9F1F 0001   	lclr [287]
 158  0284              #line 158 "D:\Wade\Project\Robot_Arm\Holtek_MCU\Program\Robot_Arm_Main_v4\Robot_Arm_Main_v4.c"
 158  0284  0FBE        	mov a,190
 158  0285  80A6 0001   	lmov [294],a
 158  0287  9F27 0001   	lclr [295]
 160  0289              #line 160 "D:\Wade\Project\Robot_Arm\Holtek_MCU\Program\Robot_Arm_Main_v4\Robot_Arm_Main_v4.c"
 160  0289              	fcall _motor_callb
 161  0290              #line 161 "D:\Wade\Project\Robot_Arm\Holtek_MCU\Program\Robot_Arm_Main_v4\Robot_Arm_Main_v4.c"
 161  0290  321E        	set [30].4
 162  0291              #line 162 "D:\Wade\Project\Robot_Arm\Holtek_MCU\Program\Robot_Arm_Main_v4\Robot_Arm_Main_v4.c"
 162  0291  0F20        	mov a,32
 162  0292  0080     R  	mov _motor_deg_2[2],a
 162  0293  0F03        	mov a,3
 162  0294  0080     R  	mov _motor_deg_2[3],a
 162  0295  0F68        	mov a,104
 162  0296  0080     R  	mov _motor_deg_2[0],a
 162  0297  0F01        	mov a,1
 162  0298  0080     R  	mov _motor_deg_2[1],a
 162  0299              	fcall _motor_deg
 163  02A0              #line 163 "D:\Wade\Project\Robot_Arm\Holtek_MCU\Program\Robot_Arm_Main_v4\Robot_Arm_Main_v4.c"
 163  02A0  0F88        	mov a,-120
 163  02A1  0080     R  	mov _delay_2[0],a
 163  02A2  0F13        	mov a,19
 163  02A3  0080     R  	mov _delay_2[1],a
 163  02A4              	fcall _delay
"File: Robot_Arm_Main_v4.c  Assembler  Version HGASM0202      Page 23

 164  02AB              #line 164 "D:\Wade\Project\Robot_Arm\Holtek_MCU\Program\Robot_Arm_Main_v4\Robot_Arm_Main_v4.c"
 164  02AB  329E        	set [30].5
 164  02AC              _L54:
 149  02AC              #line 149 "D:\Wade\Project\Robot_Arm\Holtek_MCU\Program\Robot_Arm_Main_v4\Robot_Arm_Main_v4.c"
 149  02AC  1F00     R  	clr _main_2[0]
 149  02AD              _L60:
 169  02AD              #line 169 "D:\Wade\Project\Robot_Arm\Holtek_MCU\Program\Robot_Arm_Main_v4\Robot_Arm_Main_v4.c"
 169  02AD  359E        	clr [30].3
 170  02AE              #line 170 "D:\Wade\Project\Robot_Arm\Holtek_MCU\Program\Robot_Arm_Main_v4\Robot_Arm_Main_v4.c"
 170  02AE  0F14        	mov a,20
 170  02AF  0080     R  	mov _ptm_delay_2[0],a
 170  02B0  0F05        	mov a,5
 170  02B1  0080     R  	mov _ptm_delay_2[1],a
 170  02B2              	fcall _ptm_delay
 171  02B9              #line 171 "D:\Wade\Project\Robot_Arm\Holtek_MCU\Program\Robot_Arm_Main_v4\Robot_Arm_Main_v4.c"
 171  02B9  319E        	set [30].3
 172  02BA              #line 172 "D:\Wade\Project\Robot_Arm\Holtek_MCU\Program\Robot_Arm_Main_v4\Robot_Arm_Main_v4.c"
 172  02BA  0F14        	mov a,20
 172  02BB  0080     R  	mov _ptm_delay_2[0],a
 172  02BC  0F05        	mov a,5
 172  02BD  0080     R  	mov _ptm_delay_2[1],a
 172  02BE              	fcall _ptm_delay
 172  02C5  1480     R  	inc _main_2[0]
 167  02C6              #line 167 "D:\Wade\Project\Robot_Arm\Holtek_MCU\Program\Robot_Arm_Main_v4\Robot_Arm_Main_v4.c"
 167  02C6  0700     R  	mov a,_main_2[0]
 167  02C7  0A09        	sub a,9
 167  02C8  390A        	snz z
 167  02C9  2800     R  	jmp _L60
 167  02CA  2800     R  	jmp _L59
 167  02CB  2800     R  	jmp $
 167  02CC              _main endp
 167  02CC              
 167  02CC              @dummy endp
 167  02CC              
 167  02CC              #line 167 "D:\Wade\Project\Robot_Arm\Holtek_MCU\Program\Robot_Arm_Main_v4\Robot_Arm_Main_v4.c"
 167  02CC              #pragma debug scope 1 1
 167  02CC              public _kn
 167  0000              @HCCINIT	.section 'data'
   9  0000              #line 9 "D:\Wade\Project\Robot_Arm\Holtek_MCU\Program\Robot_Arm_Main_v4\Robot_Arm_Main_v4.c"
   9  0000              @HCCINIT_kn .section 'data'
   9  0000              _kn label byte
   9  0000              #pragma debug variable 10 1 _kn "kn"
   9  0000              	db 0
   9  0000              @ROMDATA_BASE .section inpage 'code'
   9  0000              	db 0
   9  0001              @HCCINIT_kn .section 'data'
   9  0001              	db 0
   9  0001              @ROMDATA_BASE .section inpage 'code'
   9  0001              	db 0
   9  0002              @HCCINIT_kn .section 'data'
   8  0002              #line 8 "D:\Wade\Project\Robot_Arm\Holtek_MCU\Program\Robot_Arm_Main_v4\Robot_Arm_Main_v4.c"
   8  0002              public _Data
   8  0000              @HCCINIT0_Data .section 'data'
   8  0000  000A[       _Data	db 10 dup(0)
            00
            ]
   8  000A              #pragma debug array 42 8 10 1
   8  000A              #pragma debug array 42 8 10 1
   8  000A              #pragma debug variable 42 1 _Data "Data"
   8  000A              
"File: Robot_Arm_Main_v4.c  Assembler  Version HGASM0202      Page 24

   8  0000              @HCCINIT .section 'data'
   7  0000              #line 7 "D:\Wade\Project\Robot_Arm\Holtek_MCU\Program\Robot_Arm_Main_v4\Robot_Arm_Main_v4.c"
   7  0000              public _R_Data
   7  0000              @HCCINIT0_R_Data .section 'data'
   7  0000  000A[       _R_Data	db 10 dup(0)
            00
            ]
   7  000A              #pragma debug variable 42 1 _R_Data "R_Data"
   7  000A              
   7  0000              @HCCINIT .section 'data'
   7  0000              #pragma debug struct_end
   7  0000              #pragma debug struct_end
   7  0000              #pragma debug union_end
   7  0000              #pragma debug union_end
   7  0000              #pragma debug variable 44 1 ___intc0 "__intc0" 1
   7  0000              #pragma debug struct_end
   7  0000              #pragma debug struct_end
   7  0000              #pragma debug union_end
   7  0000              #pragma debug union_end
   7  0000              #pragma debug variable 46 1 ___intc3 "__intc3" 1
   7  0000              #pragma debug struct_end
   7  0000              #pragma debug struct_end
   7  0000              #pragma debug union_end
   7  0000              #pragma debug union_end
   7  0000              #pragma debug variable 48 1 ___pc "__pc" 1
   7  0000              #pragma debug struct_end
   7  0000              #pragma debug struct_end
   7  0000              #pragma debug union_end
   7  0000              #pragma debug union_end
   7  0000              #pragma debug variable 50 1 ___pcc "__pcc" 1
   7  0000              #pragma debug struct_end
   7  0000              #pragma debug struct_end
   7  0000              #pragma debug union_end
   7  0000              #pragma debug union_end
   7  0000              #pragma debug variable 52 1 ___pd "__pd" 1
   7  0000              #pragma debug struct_end
   7  0000              #pragma debug struct_end
   7  0000              #pragma debug union_end
   7  0000              #pragma debug union_end
   7  0000              #pragma debug variable 54 1 ___pdc "__pdc" 1
   7  0000              #pragma debug struct_end
   7  0000              #pragma debug struct_end
   7  0000              #pragma debug union_end
   7  0000              #pragma debug union_end
   7  0000              #pragma debug variable 56 1 ___pdpu "__pdpu" 1
   7  0000              #pragma debug struct_end
   7  0000              #pragma debug struct_end
   7  0000              #pragma debug union_end
   7  0000              #pragma debug union_end
   7  0000              #pragma debug variable 58 1 ___mfi4 "__mfi4" 1
   7  0000              #pragma debug struct_end
   7  0000              #pragma debug struct_end
   7  0000              #pragma debug union_end
   7  0000              #pragma debug union_end
   7  0000              #pragma debug variable 60 1 ___mfi5 "__mfi5" 1
   7  0000              #pragma debug struct_end
   7  0000              #pragma debug struct_end
   7  0000              #pragma debug union_end
   7  0000              #pragma debug union_end
   7  0000              #pragma debug variable 62 1 ___scc "__scc" 1
"File: Robot_Arm_Main_v4.c  Assembler  Version HGASM0202      Page 25

   7  0000              #pragma debug struct_end
   7  0000              #pragma debug struct_end
   7  0000              #pragma debug union_end
   7  0000              #pragma debug union_end
   7  0000              #pragma debug variable 64 1 ___hircc "__hircc" 1
   7  0000              #pragma debug struct_end
   7  0000              #pragma debug struct_end
   7  0000              #pragma debug union_end
   7  0000              #pragma debug union_end
   7  0000              #pragma debug variable 66 1 ___wdtc "__wdtc" 1
   7  0000              #pragma debug struct_end
   7  0000              #pragma debug struct_end
   7  0000              #pragma debug union_end
   7  0000              #pragma debug union_end
   7  0000              #pragma debug variable 68 1 ___ptm0c0 "__ptm0c0" 1
   7  0000              #pragma debug struct_end
   7  0000              #pragma debug struct_end
   7  0000              #pragma debug union_end
   7  0000              #pragma debug union_end
   7  0000              #pragma debug variable 70 1 ___ptm0c1 "__ptm0c1" 1
   7  0000              #pragma debug variable 8 1 ___ptm0al "__ptm0al" 1
   7  0000              #pragma debug variable 8 1 ___ptm0ah "__ptm0ah" 1
   7  0000              #pragma debug struct_end
   7  0000              #pragma debug struct_end
   7  0000              #pragma debug union_end
   7  0000              #pragma debug union_end
   7  0000              #pragma debug variable 72 1 ___ptm0rpl "__ptm0rpl" 1
   7  0000              #pragma debug struct_end
   7  0000              #pragma debug struct_end
   7  0000              #pragma debug union_end
   7  0000              #pragma debug union_end
   7  0000              #pragma debug variable 74 1 ___ptm0rph "__ptm0rph" 1
   7  0000              #pragma debug struct_end
   7  0000              #pragma debug struct_end
   7  0000              #pragma debug union_end
   7  0000              #pragma debug union_end
   7  0000              #pragma debug variable 76 1 ___stm0c0 "__stm0c0" 1
   7  0000              #pragma debug struct_end
   7  0000              #pragma debug struct_end
   7  0000              #pragma debug union_end
   7  0000              #pragma debug union_end
   7  0000              #pragma debug variable 78 1 ___stm0c1 "__stm0c1" 1
   7  0000              #pragma debug variable 8 1 ___stm0al "__stm0al" 1
   7  0000              #pragma debug variable 8 1 ___stm0ah "__stm0ah" 1
   7  0000              #pragma debug struct_end
   7  0000              #pragma debug struct_end
   7  0000              #pragma debug union_end
   7  0000              #pragma debug union_end
   7  0000              #pragma debug variable 80 1 ___stm0rp "__stm0rp" 1
   7  0000              #pragma debug struct_end
   7  0000              #pragma debug struct_end
   7  0000              #pragma debug union_end
   7  0000              #pragma debug union_end
   7  0000              #pragma debug variable 82 1 ___u0sr "__u0sr" 1
   7  0000              #pragma debug struct_end
   7  0000              #pragma debug struct_end
   7  0000              #pragma debug union_end
   7  0000              #pragma debug union_end
   7  0000              #pragma debug variable 84 1 ___u0cr1 "__u0cr1" 1
   7  0000              #pragma debug struct_end
"File: Robot_Arm_Main_v4.c  Assembler  Version HGASM0202      Page 26

   7  0000              #pragma debug struct_end
   7  0000              #pragma debug union_end
   7  0000              #pragma debug union_end
   7  0000              #pragma debug variable 86 1 ___u0cr2 "__u0cr2" 1
   7  0000              #pragma debug variable 8 1 ___txr_rxr0 "__txr_rxr0" 1
   7  0000              #pragma debug variable 8 1 ___brg0 "__brg0" 1
   7  0000              #pragma debug struct_end
   7  0000              #pragma debug struct_end
   7  0000              #pragma debug union_end
   7  0000              #pragma debug union_end
   7  0000              #pragma debug variable 88 1 ___ptm1c0 "__ptm1c0" 1
   7  0000              #pragma debug struct_end
   7  0000              #pragma debug struct_end
   7  0000              #pragma debug union_end
   7  0000              #pragma debug union_end
   7  0000              #pragma debug variable 90 1 ___ptm1c1 "__ptm1c1" 1
   7  0000              #pragma debug variable 8 1 ___ptm1al "__ptm1al" 1
   7  0000              #pragma debug variable 8 1 ___ptm1ah "__ptm1ah" 1
   7  0000              #pragma debug struct_end
   7  0000              #pragma debug struct_end
   7  0000              #pragma debug union_end
   7  0000              #pragma debug union_end
   7  0000              #pragma debug variable 92 1 ___ptm1rpl "__ptm1rpl" 1
   7  0000              #pragma debug struct_end
   7  0000              #pragma debug struct_end
   7  0000              #pragma debug union_end
   7  0000              #pragma debug union_end
   7  0000              #pragma debug variable 94 1 ___ptm1rph "__ptm1rph" 1
   7  0000              #pragma debug struct_end
   7  0000              #pragma debug struct_end
   7  0000              #pragma debug union_end
   7  0000              #pragma debug union_end
   7  0000              #pragma debug variable 96 1 ___ptm2c0 "__ptm2c0" 1
   7  0000              #pragma debug struct_end
   7  0000              #pragma debug struct_end
   7  0000              #pragma debug union_end
   7  0000              #pragma debug union_end
   7  0000              #pragma debug variable 98 1 ___ptm2c1 "__ptm2c1" 1
   7  0000              #pragma debug variable 8 1 ___ptm2al "__ptm2al" 1
   7  0000              #pragma debug variable 8 1 ___ptm2ah "__ptm2ah" 1
   7  0000              #pragma debug struct_end
   7  0000              #pragma debug struct_end
   7  0000              #pragma debug union_end
   7  0000              #pragma debug union_end
   7  0000              #pragma debug variable 100 1 ___ptm2rpl "__ptm2rpl" 1
   7  0000              #pragma debug struct_end
   7  0000              #pragma debug struct_end
   7  0000              #pragma debug union_end
   7  0000              #pragma debug union_end
   7  0000              #pragma debug variable 102 1 ___ptm2rph "__ptm2rph" 1
   7  0000              #pragma debug struct_end
   7  0000              #pragma debug struct_end
   7  0000              #pragma debug union_end
   7  0000              #pragma debug union_end
   7  0000              #pragma debug variable 104 1 ___ptm3c0 "__ptm3c0" 1
   7  0000              #pragma debug struct_end
   7  0000              #pragma debug struct_end
   7  0000              #pragma debug union_end
   7  0000              #pragma debug union_end
   7  0000              #pragma debug variable 106 1 ___ptm3c1 "__ptm3c1" 1
"File: Robot_Arm_Main_v4.c  Assembler  Version HGASM0202      Page 27

   7  0000              #pragma debug variable 8 1 ___ptm3al "__ptm3al" 1
   7  0000              #pragma debug variable 8 1 ___ptm3ah "__ptm3ah" 1
   7  0000              #pragma debug struct_end
   7  0000              #pragma debug struct_end
   7  0000              #pragma debug union_end
   7  0000              #pragma debug union_end
   7  0000              #pragma debug variable 108 1 ___stm1c0 "__stm1c0" 1
   7  0000              #pragma debug struct_end
   7  0000              #pragma debug struct_end
   7  0000              #pragma debug union_end
   7  0000              #pragma debug union_end
   7  0000              #pragma debug variable 110 1 ___stm1c1 "__stm1c1" 1
   7  0000              #pragma debug variable 8 1 ___stm1al "__stm1al" 1
   7  0000              #pragma debug variable 8 1 ___stm1ah "__stm1ah" 1
   7  0000              #pragma debug struct_end
   7  0000              #pragma debug struct_end
   7  0000              #pragma debug union_end
   7  0000              #pragma debug union_end
   7  0000              #pragma debug variable 112 1 ___stm1rp "__stm1rp" 1
   7  0000              #pragma debug struct_end
   7  0000              #pragma debug struct_end
   7  0000              #pragma debug union_end
   7  0000              #pragma debug union_end
   7  0000              #pragma debug variable 114 1 ___stm2c0 "__stm2c0" 1
   7  0000              #pragma debug struct_end
   7  0000              #pragma debug struct_end
   7  0000              #pragma debug union_end
   7  0000              #pragma debug union_end
   7  0000              #pragma debug variable 116 1 ___stm2c1 "__stm2c1" 1
   7  0000              #pragma debug variable 8 1 ___stm2al "__stm2al" 1
   7  0000              #pragma debug variable 8 1 ___stm2ah "__stm2ah" 1
   7  0000              #pragma debug struct_end
   7  0000              #pragma debug struct_end
   7  0000              #pragma debug union_end
   7  0000              #pragma debug union_end
   7  0000              #pragma debug variable 118 1 ___stm2rp "__stm2rp" 1
   7  0000              #pragma debug struct_end
   7  0000              #pragma debug struct_end
   7  0000              #pragma debug union_end
   7  0000              #pragma debug union_end
   7  0000              #pragma debug variable 120 1 ___pas1 "__pas1" 1
   7  0000              #pragma debug struct_end
   7  0000              #pragma debug struct_end
   7  0000              #pragma debug union_end
   7  0000              #pragma debug union_end
   7  0000              #pragma debug variable 122 1 ___pcs0 "__pcs0" 1
   7  0000              #pragma debug struct_end
   7  0000              #pragma debug struct_end
   7  0000              #pragma debug union_end
   7  0000              #pragma debug union_end
   7  0000              #pragma debug variable 124 1 ___pcs1 "__pcs1" 1
   7  0000              #pragma debug struct_end
   7  0000              #pragma debug struct_end
   7  0000              #pragma debug union_end
   7  0000              #pragma debug union_end
   7  0000              #pragma debug variable 126 1 ___pds0 "__pds0" 1
   7  0000              #pragma debug struct_end
   7  0000              #pragma debug struct_end
   7  0000              #pragma debug union_end
   7  0000              #pragma debug union_end
"File: Robot_Arm_Main_v4.c  Assembler  Version HGASM0202      Page 28

   7  0000              #pragma debug variable 128 1 ___pfs1 "__pfs1" 1
   7  0000              extern r1:byte
   7  0000              extern r2:byte
   7  0000              extern r3:byte
   7  0000              extern r4:byte
   7  0000              extern r5:byte
   7  0000              extern r6:byte
   7  0000              extern r7:byte
  42  0000              #line 42 "D:\Wade\Project\Robot_Arm\Holtek_MCU\Program\Robot_Arm_Main_v4\Robot_Arm_Main_v4.c"
  42  0000              @code .section at 0 'code'
  42  0000  1F0B        	clr bp
  42  0001  2800     R  	jmp _main_startup1
  42  0002              
  42  0002              
  42  0002              ; 
  42  0002              ; Generated by holtek-gcc v3.19, Wed Nov 17 15:35:18 2021
  42  0002              ; Rebuild 718
  42  0002              ; end of file


        0 Errors, 0