"File: Robot_Arm_Main.c  Assembler  Version HGASM0202      Page 1


   1  0000              ; Generated by holtek-gcc v3.19, Tue Jul 27 16:29:10 2021
   2  0000              ; 
   3  0000              ; Configuration:
   4  0000              ;       with long instruction
   5  0000              ;       Multi-ROM, Multi-RAM
   6  0000              ;       bits_per_rom_unit:16
   7  0000              ;       with mp1
   8  0000              ;       with tbhp, address(0x9)
   9  0000              ;          Use tabrd-const
  10  0000              ;       
  11  0000              ; SFR address of long-instruction arch:
  12  0000              ;    mp0 = -1,1,0
  13  0000              ;    mp1 = 4,3,2
  14  0000              ;    mp2 = 14,13,12
  15  0000              ;    tbp = 9,7,8
  16  0000              ;    acc = 5
  17  0000              ;    pcl = 6
  18  0000              ;    status = 10
  19  0000              ;    bp = 11
  20  0000              ;    intc = 16
  21  0000              ;       
  22  0000              ;       
  23  0000              ; use 'tabrdc' instead of 'tabrd'
  24  0000              ;       
  25  0000              
  26  0000              #pragma translator "holtek-gcc 4.6.4" "3.19" "build 20130711"
  27  0000              ; Rebuild 718
  28  0000              
  29  0000              ir equ [2]
  30  0000              mp equ [3]
  31  0000              sbp equ [4]
  32  0000              acc equ [5]
  33  0000              bp equ [11]
  34  0000              tblp equ [7]
  35  0000              tbhp equ [9]
  36  0000              status equ [10]
  37  0000              c equ [10].0
  38  0000              ac equ [10].1
  39  0000              z equ [10].2
  40  0000              ov equ [10].3
  41  0000              cz equ [10].6
  42  0000              sc equ [10].7
  43  0000              intc equ [16]
  44  0000              mduwr0 equ [59h]
  45  0000              mduwr1 equ [5ah]
  46  0000              mduwr2 equ [5bh]
  47  0000              mduwr3 equ [5ch]
  48  0000              mduwr4 equ [5dh]
  49  0000              mduwr5 equ [5eh]
  50  0000              mduwrctrl equ [5fh]
  51  0000              
  52  0000              extern ra:byte
  53  0000              extern rb:byte
  54  0000              extern rc:byte
  55  0000              extern rd:byte
  56  0000              extern re:byte
  57  0000              extern rf:byte
  58  0000              extern rg:byte
  59  0000              extern rh:byte
"File: Robot_Arm_Main.ASM  Assembler  Version HGASM0202      Page 2

  60  0000              extern _Crom2Prom:near
  61  0000              extern _Crom2PromNext:near
  62  0000              
  63  0000              RAMBANK 0 @BITDATASEC, @BITDATASEC1
  64  0000              @HCCINIT	.section 'data'
  65  0000              @HCCINIT0	.section 'data'
  66  0000              @BITDATASEC	 .section 'data'
  67  0000              @BITDATASEC1	 .section 'data'
  68  0000              
  69  0000              #pragma debug scope 1 1
  70  0000              	extern __DELAY3:near
  71  0000              	extern __DELAYX3:near
  72  0000              	extern __DELAYX6:near
  73  0000              	extern __DELAYY5:near
  74  0000              	extern __DELAYY3:near
  75  0000              	extern _builtin_holtek_delay_2:byte
  76  0000              ___pas1 equ [334]
  77  0000              ___u0cr1 equ [273]
  78  0000              ___u0cr2 equ [274]
  79  0000              ___brg0 equ [276]
  80  0000              ___mfi5 equ [56]
  81  0000              ___intc3 equ [19]
  82  0000              ___intc0 equ [16]
  83  0000              public _UART_Setup
  84  0000              #pragma debug scope 2 1

 108  0000              #line 108 "D:\Wade\Project\Robot_Arm\Holtek MCU\Program\Robot_Arm_Main\Robot_Arm_Main.c"
 108  0000              _UART_Setup .section 'code'
 108  0000              _UART_Setup proc
 109  0000              #line 109 "D:\Wade\Project\Robot_Arm\Holtek MCU\Program\Robot_Arm_Main\Robot_Arm_Main.c"
 109  0000  0FF0        	mov a,240
 109  0001  80CE 0001   	lmov [334],a
 110  0003              #line 110 "D:\Wade\Project\Robot_Arm\Holtek MCU\Program\Robot_Arm_Main\Robot_Arm_Main.c"
 110  0003  0F80        	mov a,128
 110  0004  8091 0001   	lmov [273],a
 111  0006              #line 111 "D:\Wade\Project\Robot_Arm\Holtek MCU\Program\Robot_Arm_Main\Robot_Arm_Main.c"
 111  0006  0F44        	mov a,68
 111  0007  8092 0001   	lmov [274],a
 112  0009              #line 112 "D:\Wade\Project\Robot_Arm\Holtek MCU\Program\Robot_Arm_Main\Robot_Arm_Main.c"
 112  0009  0F0C        	mov a,12
 112  000A  8094 0001   	lmov [276],a
 113  000C              #line 113 "D:\Wade\Project\Robot_Arm\Holtek MCU\Program\Robot_Arm_Main\Robot_Arm_Main.c"
 113  000C  3038        	set [56].0
 114  000D              #line 114 "D:\Wade\Project\Robot_Arm\Holtek MCU\Program\Robot_Arm_Main\Robot_Arm_Main.c"
 114  000D  3638        	clr [56].4
 115  000E              #line 115 "D:\Wade\Project\Robot_Arm\Holtek MCU\Program\Robot_Arm_Main\Robot_Arm_Main.c"
 115  000E  3193        	set [19].3
 116  000F              #line 116 "D:\Wade\Project\Robot_Arm\Holtek MCU\Program\Robot_Arm_Main\Robot_Arm_Main.c"
 116  000F  3010        	set [16].0
 116  0010  0003        	ret
 116  0011              _UART_Setup endp
 116  0011              #line 116 "D:\Wade\Project\Robot_Arm\Holtek MCU\Program\Robot_Arm_Main\Robot_Arm_Main.c"
 116  0011              #pragma debug scope 1 1
 116  0011              ___u0sr equ [272]
 116  0011              ___txr_rxr0 equ [275]
 116  0011              public _Read_Data
 116  0011              #pragma debug scope 3 1
 120  0011              #line 120 "D:\Wade\Project\Robot_Arm\Holtek MCU\Program\Robot_Arm_Main\Robot_Arm_Main.c"
 120  0000              _Read_Data .section 'code'
 120  0000              _Read_Data proc
"File: Robot_Arm_Main.c  Assembler  Version HGASM0202      Page 3

 120  0000              _L4:
 121  0000              #line 121 "D:\Wade\Project\Robot_Arm\Holtek MCU\Program\Robot_Arm_Main\Robot_Arm_Main.c"
 121  0000  B990 0001   	lsnz [272].3
 121  0002  2800     R  	jmp _L4
 122  0003              #line 122 "D:\Wade\Project\Robot_Arm\Holtek MCU\Program\Robot_Arm_Main\Robot_Arm_Main.c"
 122  0003  0700     R  	mov a,_kn[0]
 122  0004  0080     E  	mov rb,a
 122  0005  0700     R  	mov a,_kn[1]
 122  0006  0080     E  	mov rc,a
 122  0007  8713 0001   	lmov a,[275]
 122  0009  0080     E  	mov ra,a
 122  000A  0F00     R  	mov a,low offset _R_Data
 122  000B  0300     E  	add a,rb
 122  000C  0083        	mov mp,a
 122  000D  0F00     R  	mov a,high offset _R_Data
 122  000E  1300     E  	adc a,rc
 122  000F  0084        	mov sbp,a
 122  0010  0700     E  	mov a,ra
 122  0011  0082        	mov ir,a
 123  0012              #line 123 "D:\Wade\Project\Robot_Arm\Holtek MCU\Program\Robot_Arm_Main\Robot_Arm_Main.c"
 123  0012  0700     E  	mov a,ra
 123  0013  0A2F        	sub a,47
 123  0014  3D0A        	sz z
 123  0015  2800     R  	jmp _L5
 123  0016  0F09        	mov a,9
 123  0017  0200     E  	sub a,rb
 123  0018  0F00        	mov a,0
 123  0019  1200     E  	sbc a,rc
 123  001A  3C0A        	sz c
 123  001B  2800     R  	jmp _L6
 123  001C              _L5:
 123  001C  1F00     R  	clr _kn[0]
 123  001D  1F00     R  	clr _kn[1]
 123  001E  2800     R  	jmp _L2
 123  001F              _L6:
 124  001F              #line 124 "D:\Wade\Project\Robot_Arm\Holtek MCU\Program\Robot_Arm_Main\Robot_Arm_Main.c"
 124  001F  0F01        	mov a,1
 124  0020  0300     E  	add a,rb
 124  0021  0080     R  	mov _kn[0],a
 124  0022  0F00        	mov a,0
 124  0023  1300     E  	adc a,rc
 124  0024  0080     R  	mov _kn[1],a
 124  0025              _L2:
 124  0025  0003        	ret
 124  0026              _Read_Data endp
 124  0026              #line 124 "D:\Wade\Project\Robot_Arm\Holtek MCU\Program\Robot_Arm_Main\Robot_Arm_Main.c"
 124  0026              #pragma debug scope 1 1
 124  0026              public _Uart_R
 124  0026              #pragma debug scope 4 1
 102  0026              #line 102 "D:\Wade\Project\Robot_Arm\Holtek MCU\Program\Robot_Arm_Main\Robot_Arm_Main.c"
 102  0026              rombank 0 @Uart_R_code
 102  0000              @Uart_R_code .section at 60 'code'
 102  0000  0080     E  	mov r1,a
 102  0001  070B        	mov a,bp
 102  0002  1F0B        	clr bp
 102  0003  2800     R  	jmp _Uart_R
 102  0004              ROMBANK 0 _Uart_R
 102  0004              #pragma debug scope 1 1
 102  0004              @dummy60 endp
 102  0004              #pragma debug scope 5 1
"File: Robot_Arm_Main.c  Assembler  Version HGASM0202      Page 4

 102  0000              _Uart_R .section 'code'
 102  0000              _Uart_R proc
 102  0000  0080     E  	mov r2,a
 102  0001  070A        	mov a, status
 102  0002  0080     E  	mov r3,a
 102  0003  0703        	mov a,mp
 102  0004  0080     E  	mov r4,a
 102  0005  0704        	mov a,sbp
 102  0006  0080     E  	mov r5,a
 102  0007  0707        	mov a,tblp
 102  0008  0080     E  	mov r6,a
 102  0009  0709        	mov a,tbhp
 102  000A  0080     E  	mov r7,a
 103  000B              #line 103 "D:\Wade\Project\Robot_Arm\Holtek MCU\Program\Robot_Arm_Main\Robot_Arm_Main.c"
 103  000B              	fcall _Read_Data
 104  0012              #line 104 "D:\Wade\Project\Robot_Arm\Holtek MCU\Program\Robot_Arm_Main\Robot_Arm_Main.c"
 104  0012  3638        	clr [56].4
 104  0013  0700     E  	mov a,r2
 104  0014  008B        	mov bp,a
 104  0015  0700     E  	mov a,r3
 104  0016  008A        	mov status,a
 104  0017  0700     E  	mov a,r4
 104  0018  0083        	mov mp,a
 104  0019  0700     E  	mov a,r5
 104  001A  0084        	mov sbp,a
 104  001B  0700     E  	mov a,r6
 104  001C  0087        	mov tblp,a
 104  001D  0700     E  	mov a,r7
 104  001E  0089        	mov tbhp,a
 104  001F  1D05        	tabrdc acc
 104  0020  0700     E  	mov a,r1
 104  0021  0004        	reti
 104  0022              _Uart_R endp
 104  0022              
 104  0022              #line 104 "D:\Wade\Project\Robot_Arm\Holtek MCU\Program\Robot_Arm_Main\Robot_Arm_Main.c"
 104  0022              #pragma debug scope 1 1
 104  0022              ___stm0c0 equ [78]
 104  0022              ___stm0c1 equ [79]
 104  0022              ___stm0rp equ [84]
 104  0022              ___stm0al equ [82]
 104  0022              ___stm0ah equ [83]
 104  0022              ___stm1c0 equ [306]
 104  0022              ___stm1c1 equ [307]
 104  0022              ___stm1rp equ [312]
 104  0022              ___stm1al equ [310]
 104  0022              ___stm1ah equ [311]
 104  0022              ___stm2c0 equ [313]
 104  0022              ___stm2c1 equ [314]
 104  0022              ___stm2rp equ [319]
 104  0022              ___stm2al equ [317]
 104  0022              ___stm2ah equ [318]
 104  0022              ___ptm0c0 equ [70]
 104  0022              ___ptm0c1 equ [71]
 104  0022              ___ptm0rpl equ [76]
 104  0022              ___ptm0rph equ [77]
 104  0022              ___ptm0al equ [74]
 104  0022              ___ptm0ah equ [75]
 104  0022              ___ptm1c0 equ [282]
 104  0022              ___ptm1c1 equ [283]
 104  0022              ___ptm1rpl equ [288]
"File: Robot_Arm_Main.c  Assembler  Version HGASM0202      Page 5

 104  0022              ___ptm1rph equ [289]
 104  0022              ___ptm1al equ [286]
 104  0022              ___ptm1ah equ [287]
 104  0022              ___ptm2c0 equ [290]
 104  0022              ___ptm2c1 equ [291]
 104  0022              ___ptm2rpl equ [296]
 104  0022              ___ptm2rph equ [297]
 104  0022              ___ptm2al equ [294]
 104  0022              ___ptm2ah equ [295]
 104  0022              public _stm_setup
 104  0022              #pragma debug scope 6 1
 143  0022              #line 143 "D:\Wade\Project\Robot_Arm\Holtek MCU\Program\Robot_Arm_Main\Robot_Arm_Main.c"
 143  0000              _stm_setup .section 'code'
 143  0000              _stm_setup proc
 144  0000              #line 144 "D:\Wade\Project\Robot_Arm\Holtek MCU\Program\Robot_Arm_Main\Robot_Arm_Main.c"
 144  0000  0F30        	mov a,48
 144  0001  00CE        	mov [78],a
 145  0002              #line 145 "D:\Wade\Project\Robot_Arm\Holtek MCU\Program\Robot_Arm_Main\Robot_Arm_Main.c"
 145  0002  0FA8        	mov a,168
 145  0003  00CF        	mov [79],a
 146  0004              #line 146 "D:\Wade\Project\Robot_Arm\Holtek MCU\Program\Robot_Arm_Main\Robot_Arm_Main.c"
 146  0004  0F0A        	mov a,10
 146  0005  00D4        	mov [84],a
 147  0006              #line 147 "D:\Wade\Project\Robot_Arm\Holtek MCU\Program\Robot_Arm_Main\Robot_Arm_Main.c"
 147  0006  0FBC        	mov a,188
 147  0007  00D2        	mov [82],a
 147  0008  1F53        	clr [83]
 149  0009              #line 149 "D:\Wade\Project\Robot_Arm\Holtek MCU\Program\Robot_Arm_Main\Robot_Arm_Main.c"
 149  0009  0F30        	mov a,48
 149  000A  80B2 0001   	lmov [306],a
 150  000C              #line 150 "D:\Wade\Project\Robot_Arm\Holtek MCU\Program\Robot_Arm_Main\Robot_Arm_Main.c"
 150  000C  0FA8        	mov a,168
 150  000D  80B3 0001   	lmov [307],a
 151  000F              #line 151 "D:\Wade\Project\Robot_Arm\Holtek MCU\Program\Robot_Arm_Main\Robot_Arm_Main.c"
 151  000F  0F0A        	mov a,10
 151  0010  80B8 0001   	lmov [312],a
 152  0012              #line 152 "D:\Wade\Project\Robot_Arm\Holtek MCU\Program\Robot_Arm_Main\Robot_Arm_Main.c"
 152  0012  0FBC        	mov a,188
 152  0013  80B6 0001   	lmov [310],a
 152  0015  9F37 0001   	lclr [311]
 154  0017              #line 154 "D:\Wade\Project\Robot_Arm\Holtek MCU\Program\Robot_Arm_Main\Robot_Arm_Main.c"
 154  0017  0F30        	mov a,48
 154  0018  80B9 0001   	lmov [313],a
 155  001A              #line 155 "D:\Wade\Project\Robot_Arm\Holtek MCU\Program\Robot_Arm_Main\Robot_Arm_Main.c"
 155  001A  0FA8        	mov a,168
 155  001B  80BA 0001   	lmov [314],a
 156  001D              #line 156 "D:\Wade\Project\Robot_Arm\Holtek MCU\Program\Robot_Arm_Main\Robot_Arm_Main.c"
 156  001D  0F0A        	mov a,10
 156  001E  80BF 0001   	lmov [319],a
 157  0020              #line 157 "D:\Wade\Project\Robot_Arm\Holtek MCU\Program\Robot_Arm_Main\Robot_Arm_Main.c"
 157  0020  0FBC        	mov a,188
 157  0021  80BD 0001   	lmov [317],a
 157  0023  9F3E 0001   	lclr [318]
 159  0025              #line 159 "D:\Wade\Project\Robot_Arm\Holtek MCU\Program\Robot_Arm_Main\Robot_Arm_Main.c"
 159  0025  0F30        	mov a,48
 159  0026  00C6        	mov [70],a
 160  0027              #line 160 "D:\Wade\Project\Robot_Arm\Holtek MCU\Program\Robot_Arm_Main\Robot_Arm_Main.c"
 160  0027  0FA8        	mov a,168
 160  0028  00C7        	mov [71],a
 161  0029              #line 161 "D:\Wade\Project\Robot_Arm\Holtek MCU\Program\Robot_Arm_Main\Robot_Arm_Main.c"
"File: Robot_Arm_Main.c  Assembler  Version HGASM0202      Page 6

 161  0029  1FCC        	set [76]
 161  002A  0F03        	mov a,3
 161  002B  00CD        	mov [77],a
 162  002C              #line 162 "D:\Wade\Project\Robot_Arm\Holtek MCU\Program\Robot_Arm_Main\Robot_Arm_Main.c"
 162  002C  0F64        	mov a,100
 162  002D  00CA        	mov [74],a
 162  002E  1F4B        	clr [75]
 164  002F              #line 164 "D:\Wade\Project\Robot_Arm\Holtek MCU\Program\Robot_Arm_Main\Robot_Arm_Main.c"
 164  002F  0F30        	mov a,48
 164  0030  809A 0001   	lmov [282],a
 165  0032              #line 165 "D:\Wade\Project\Robot_Arm\Holtek MCU\Program\Robot_Arm_Main\Robot_Arm_Main.c"
 165  0032  0FA8        	mov a,168
 165  0033  809B 0001   	lmov [283],a
 166  0035              #line 166 "D:\Wade\Project\Robot_Arm\Holtek MCU\Program\Robot_Arm_Main\Robot_Arm_Main.c"
 166  0035  9FA0 0001   	lset [288]
 166  0037  0F03        	mov a,3
 166  0038  80A1 0001   	lmov [289],a
 167  003A              #line 167 "D:\Wade\Project\Robot_Arm\Holtek MCU\Program\Robot_Arm_Main\Robot_Arm_Main.c"
 167  003A  0F64        	mov a,100
 167  003B  809E 0001   	lmov [286],a
 167  003D  9F1F 0001   	lclr [287]
 169  003F              #line 169 "D:\Wade\Project\Robot_Arm\Holtek MCU\Program\Robot_Arm_Main\Robot_Arm_Main.c"
 169  003F  0F30        	mov a,48
 169  0040  80A2 0001   	lmov [290],a
 170  0042              #line 170 "D:\Wade\Project\Robot_Arm\Holtek MCU\Program\Robot_Arm_Main\Robot_Arm_Main.c"
 170  0042  0FA8        	mov a,168
 170  0043  80A3 0001   	lmov [291],a
 171  0045              #line 171 "D:\Wade\Project\Robot_Arm\Holtek MCU\Program\Robot_Arm_Main\Robot_Arm_Main.c"
 171  0045  9FA8 0001   	lset [296]
 171  0047  0F03        	mov a,3
 171  0048  80A9 0001   	lmov [297],a
 172  004A              #line 172 "D:\Wade\Project\Robot_Arm\Holtek MCU\Program\Robot_Arm_Main\Robot_Arm_Main.c"
 172  004A  0F50        	mov a,80
 172  004B  80A6 0001   	lmov [294],a
 172  004D  9F27 0001   	lclr [295]
 172  004F  0003        	ret
 172  0050              _stm_setup endp
 172  0050              #line 172 "D:\Wade\Project\Robot_Arm\Holtek MCU\Program\Robot_Arm_Main\Robot_Arm_Main.c"
 172  0050              #pragma debug scope 1 1
 172  0050              ___pcs1 equ [338]
 172  0050              ___pds0 equ [339]
 172  0050              ___pfs1 equ [344]
 172  0050              ___pcs0 equ [337]
 172  0050              public _servo_setup
 172  0050              #pragma debug scope 7 1
 128  0050              #line 128 "D:\Wade\Project\Robot_Arm\Holtek MCU\Program\Robot_Arm_Main\Robot_Arm_Main.c"
 128  0000              _servo_setup .section 'code'
 128  0000              _servo_setup proc
 129  0000              #line 129 "D:\Wade\Project\Robot_Arm\Holtek MCU\Program\Robot_Arm_Main\Robot_Arm_Main.c"
 129  0000  0F22        	mov a,34
 129  0001  80D2 0001   	lmov [338],a
 130  0003              #line 130 "D:\Wade\Project\Robot_Arm\Holtek MCU\Program\Robot_Arm_Main\Robot_Arm_Main.c"
 130  0003  0F12        	mov a,18
 130  0004  80D3 0001   	lmov [339],a
 131  0006              #line 131 "D:\Wade\Project\Robot_Arm\Holtek MCU\Program\Robot_Arm_Main\Robot_Arm_Main.c"
 131  0006  0F80        	mov a,128
 131  0007  80D8 0001   	lmov [344],a
 132  0009              #line 132 "D:\Wade\Project\Robot_Arm\Holtek MCU\Program\Robot_Arm_Main\Robot_Arm_Main.c"
 132  0009  0F20        	mov a,32
 132  000A  80D1 0001   	lmov [337],a
"File: Robot_Arm_Main.c  Assembler  Version HGASM0202      Page 7

 133  000C              #line 133 "D:\Wade\Project\Robot_Arm\Holtek MCU\Program\Robot_Arm_Main\Robot_Arm_Main.c"
 133  000C              	fcall _stm_setup
 134  0013              #line 134 "D:\Wade\Project\Robot_Arm\Holtek MCU\Program\Robot_Arm_Main\Robot_Arm_Main.c"
 134  0013  B1B2 0001   	lset [306].3
 134  0015  0F64        	mov a,100
 134  0016  80B6 0001   	lmov [310],a
 134  0018  9F37 0001   	lclr [311]
 135  001A              #line 135 "D:\Wade\Project\Robot_Arm\Holtek MCU\Program\Robot_Arm_Main\Robot_Arm_Main.c"
 135  001A  B1B9 0001   	lset [313].3
 135  001C  0F64        	mov a,100
 135  001D  80BD 0001   	lmov [317],a
 135  001F  9F3E 0001   	lclr [318]
 136  0021              #line 136 "D:\Wade\Project\Robot_Arm\Holtek MCU\Program\Robot_Arm_Main\Robot_Arm_Main.c"
 136  0021  31C6        	set [70].3
 136  0022  0F64        	mov a,100
 136  0023  00CA        	mov [74],a
 136  0024  1F4B        	clr [75]
 137  0025              #line 137 "D:\Wade\Project\Robot_Arm\Holtek MCU\Program\Robot_Arm_Main\Robot_Arm_Main.c"
 137  0025  B19A 0001   	lset [282].3
 137  0027  0F64        	mov a,100
 137  0028  809E 0001   	lmov [286],a
 137  002A  9F1F 0001   	lclr [287]
 138  002C              #line 138 "D:\Wade\Project\Robot_Arm\Holtek MCU\Program\Robot_Arm_Main\Robot_Arm_Main.c"
 138  002C  31CE        	set [78].3
 138  002D  0F64        	mov a,100
 138  002E  00D2        	mov [82],a
 138  002F  1F53        	clr [83]
 139  0030              #line 139 "D:\Wade\Project\Robot_Arm\Holtek MCU\Program\Robot_Arm_Main\Robot_Arm_Main.c"
 139  0030  B1A2 0001   	lset [290].3
 139  0032  0FC8        	mov a,200
 139  0033  80A6 0001   	lmov [294],a
 139  0035  9F27 0001   	lclr [295]
 139  0037  0003        	ret
 139  0038              _servo_setup endp
 139  0038              #line 139 "D:\Wade\Project\Robot_Arm\Holtek MCU\Program\Robot_Arm_Main\Robot_Arm_Main.c"
 139  0038              #pragma debug scope 1 1
 139  0038              public _delay
 139  0038              #pragma debug scope 8 1
 176  0038              #line 176 "D:\Wade\Project\Robot_Arm\Holtek MCU\Program\Robot_Arm_Main\Robot_Arm_Main.c"
 176  0000              _delay .section 'code'
 176  0000              _delay proc
 176  0000              public _delay_2
 176  0000  0002[           local _delay_2 db 2 dup(?)	; 2,0
            00
            ]
 176  0002              #pragma debug variable 10 8 _delay_2+0 "var"
 178  0002              #line 178 "D:\Wade\Project\Robot_Arm\Holtek MCU\Program\Robot_Arm_Main\Robot_Arm_Main.c"
 178  0000  1F00     E  	clr rb
 178  0001  1F00     E  	clr rc
 178  0002              _L16:
 178  0002              #line 178 "D:\Wade\Project\Robot_Arm\Holtek MCU\Program\Robot_Arm_Main\Robot_Arm_Main.c"
 178  0002  0700     E  	mov a,rb
 178  0003  0200     R  	sub a,_delay_2[0]
 178  0004  0700     E  	mov a,rc
 178  0005  1200     R  	sbc a,_delay_2[1]
 178  0006  3F0A        	sz cz
 178  0007  2800     R  	jmp _L15
 178  0008  1F00     E  	clr ra
 178  0009              _L19:
 180  0009              #line 180 "D:\Wade\Project\Robot_Arm\Holtek MCU\Program\Robot_Arm_Main\Robot_Arm_Main.c"
"File: Robot_Arm_Main.c  Assembler  Version HGASM0202      Page 8

 180  0009              ;# 180 "D:\Wade\Project\Robot_Arm\Holtek MCU\Program\Robot_Arm_Main\Robot_Arm_Main.c" 1
 180  0009  0000        	nop
 180  000A  1480     E  	inc ra
 179  000B              #line 179 "D:\Wade\Project\Robot_Arm\Holtek MCU\Program\Robot_Arm_Main\Robot_Arm_Main.c"
 179  000B  0700     E  	mov a,ra
 179  000C  0A19        	sub a,25
 179  000D  390A        	snz z
 179  000E  2800     R  	jmp _L19
 178  000F              #line 178 "D:\Wade\Project\Robot_Arm\Holtek MCU\Program\Robot_Arm_Main\Robot_Arm_Main.c"
 178  000F  1480     E  	inc rb
 178  0010  3D0A        	sz z
 178  0011  1480     E  	inc rc
 178  0012  2800     R  	jmp _L16
 178  0013              _L15:
 178  0013  0003        	ret
 178  0014              _delay endp
 178  0014              #line 178 "D:\Wade\Project\Robot_Arm\Holtek MCU\Program\Robot_Arm_Main\Robot_Arm_Main.c"
 178  0014              #pragma debug scope 1 1
 178  0014              ___pf equ [36]
 178  0014              ___pg equ [39]
 178  0014              public _Segment
 178  0014              #pragma debug scope 9 1
  79  0014              #line 79 "D:\Wade\Project\Robot_Arm\Holtek MCU\Program\Robot_Arm_Main\Robot_Arm_Main.c"
  79  0000              _Segment .section 'code'
  79  0000              _Segment proc
  79  0000              public _Segment_2
  79  0000  0002[           local _Segment_2 db 2 dup(?)	; 2,0
            00
            ]
  79  0002              #pragma debug variable 10 9 _Segment_2+0 "Value"
  80  0002              #line 80 "D:\Wade\Project\Robot_Arm\Holtek MCU\Program\Robot_Arm_Main\Robot_Arm_Main.c"
  80  0000  3024        	set [36].0
  81  0001              #line 81 "D:\Wade\Project\Robot_Arm\Holtek MCU\Program\Robot_Arm_Main\Robot_Arm_Main.c"
  81  0001  1B10        	rrca intc
  81  0002  3410        	clr intc.0
  81  0003  0700     R  	mov a,_Segment_2[0]
  81  0004  00D9        	mov mduwr0,a
  81  0005  0700     R  	mov a,_Segment_2[1]
  81  0006  00DA        	mov mduwr1,a
  81  0007  0FE8        	mov a,232
  81  0008  00DD        	mov mduwr4,a
  81  0009  0F03        	mov a,3
  81  000A  00DE        	mov mduwr5,a
  81  000B  0F06        	mov a,6
  81  000C              _LI1:
  81  000C  1785        	sdz acc
  81  000D  2800     R  	jmp _LI1
  81  000E  0759        	mov a,mduwr0
  81  000F  0080     E  	mov rb,a
  81  0010  075A        	mov a,mduwr1
  81  0011  0080     E  	mov rc,a
  81  0012  3C0A        	sz c
  81  0013  3010        	set intc.0
  81  0014  1B10        	rrca intc
  81  0015  3410        	clr intc.0
  81  0016  0700     E  	mov a,rb
  81  0017  00D9        	mov mduwr0,a
  81  0018  0700     E  	mov a,rc
  81  0019  00DA        	mov mduwr1,a
  81  001A  0F0A        	mov a,10
"File: Robot_Arm_Main.c  Assembler  Version HGASM0202      Page 9

  81  001B  00DD        	mov mduwr4,a
  81  001C  0F00        	mov a,0
  81  001D  00DE        	mov mduwr5,a
  81  001E  0F06        	mov a,6
  81  001F              _LI2:
  81  001F  1785        	sdz acc
  81  0020  2800     R  	jmp _LI2
  81  0021  075D        	mov a,mduwr4
  81  0022  0080     E  	mov rb,a
  81  0023  075E        	mov a,mduwr5
  81  0024  0080     E  	mov rc,a
  81  0025  3C0A        	sz c
  81  0026  3010        	set intc.0
  81  0027  340A        	clr c
  81  0028  1A80     E  	rlc rb
  81  0029  1A80     E  	rlc rc
  81  002A  0F00     R  	mov a,low offset _tag
  81  002B  0300     E  	add a,rb
  81  002C  0083        	mov mp,a
  81  002D  0F00     R  	mov a,high offset _tag
  81  002E  1300     E  	adc a,rc
  81  002F  0084        	mov sbp,a
  81  0030              	fcall _Crom2Prom
  81  0037  00A7        	mov [39],a
  82  0038              #line 82 "D:\Wade\Project\Robot_Arm\Holtek MCU\Program\Robot_Arm_Main\Robot_Arm_Main.c"
  82  0038  0F1E        	mov a,30
  82  0039  0080     R  	mov _delay_2[0],a
  82  003A  1F00     R  	clr _delay_2[1]
  82  003B              	fcall _delay
  83  0042              #line 83 "D:\Wade\Project\Robot_Arm\Holtek MCU\Program\Robot_Arm_Main\Robot_Arm_Main.c"
  83  0042  3424        	clr [36].0
  85  0043              #line 85 "D:\Wade\Project\Robot_Arm\Holtek MCU\Program\Robot_Arm_Main\Robot_Arm_Main.c"
  85  0043  30A4        	set [36].1
  86  0044              #line 86 "D:\Wade\Project\Robot_Arm\Holtek MCU\Program\Robot_Arm_Main\Robot_Arm_Main.c"
  86  0044  1B10        	rrca intc
  86  0045  3410        	clr intc.0
  86  0046  0700     R  	mov a,_Segment_2[0]
  86  0047  00D9        	mov mduwr0,a
  86  0048  0700     R  	mov a,_Segment_2[1]
  86  0049  00DA        	mov mduwr1,a
  86  004A  0F64        	mov a,100
  86  004B  00DD        	mov mduwr4,a
  86  004C  0F00        	mov a,0
  86  004D  00DE        	mov mduwr5,a
  86  004E  0F06        	mov a,6
  86  004F              _LI3:
  86  004F  1785        	sdz acc
  86  0050  2800     R  	jmp _LI3
  86  0051  0759        	mov a,mduwr0
  86  0052  0080     E  	mov rb,a
  86  0053  075A        	mov a,mduwr1
  86  0054  0080     E  	mov rc,a
  86  0055  3C0A        	sz c
  86  0056  3010        	set intc.0
  86  0057  1B10        	rrca intc
  86  0058  3410        	clr intc.0
  86  0059  0700     E  	mov a,rb
  86  005A  00D9        	mov mduwr0,a
  86  005B  0700     E  	mov a,rc
  86  005C  00DA        	mov mduwr1,a
"File: Robot_Arm_Main.c  Assembler  Version HGASM0202      Page 10

  86  005D  0F0A        	mov a,10
  86  005E  00DD        	mov mduwr4,a
  86  005F  0F00        	mov a,0
  86  0060  00DE        	mov mduwr5,a
  86  0061  0F06        	mov a,6
  86  0062              _LI4:
  86  0062  1785        	sdz acc
  86  0063  2800     R  	jmp _LI4
  86  0064  075D        	mov a,mduwr4
  86  0065  0080     E  	mov rb,a
  86  0066  075E        	mov a,mduwr5
  86  0067  0080     E  	mov rc,a
  86  0068  3C0A        	sz c
  86  0069  3010        	set intc.0
  86  006A  340A        	clr c
  86  006B  1A80     E  	rlc rb
  86  006C  1A80     E  	rlc rc
  86  006D  0F00     R  	mov a,low offset _tag
  86  006E  0300     E  	add a,rb
  86  006F  0083        	mov mp,a
  86  0070  0F00     R  	mov a,high offset _tag
  86  0071  1300     E  	adc a,rc
  86  0072  0084        	mov sbp,a
  86  0073              	fcall _Crom2Prom
  86  007A  00A7        	mov [39],a
  87  007B              #line 87 "D:\Wade\Project\Robot_Arm\Holtek MCU\Program\Robot_Arm_Main\Robot_Arm_Main.c"
  87  007B  0F1E        	mov a,30
  87  007C  0080     R  	mov _delay_2[0],a
  87  007D  1F00     R  	clr _delay_2[1]
  87  007E              	fcall _delay
  88  0085              #line 88 "D:\Wade\Project\Robot_Arm\Holtek MCU\Program\Robot_Arm_Main\Robot_Arm_Main.c"
  88  0085  34A4        	clr [36].1
  90  0086              #line 90 "D:\Wade\Project\Robot_Arm\Holtek MCU\Program\Robot_Arm_Main\Robot_Arm_Main.c"
  90  0086  3124        	set [36].2
  91  0087              #line 91 "D:\Wade\Project\Robot_Arm\Holtek MCU\Program\Robot_Arm_Main\Robot_Arm_Main.c"
  91  0087  1B10        	rrca intc
  91  0088  3410        	clr intc.0
  91  0089  0700     R  	mov a,_Segment_2[0]
  91  008A  00D9        	mov mduwr0,a
  91  008B  0700     R  	mov a,_Segment_2[1]
  91  008C  00DA        	mov mduwr1,a
  91  008D  0F0A        	mov a,10
  91  008E  00DD        	mov mduwr4,a
  91  008F  0F00        	mov a,0
  91  0090  00DE        	mov mduwr5,a
  91  0091  0F06        	mov a,6
  91  0092              _LI5:
  91  0092  1785        	sdz acc
  91  0093  2800     R  	jmp _LI5
  91  0094  0759        	mov a,mduwr0
  91  0095  0080     E  	mov rb,a
  91  0096  075A        	mov a,mduwr1
  91  0097  0080     E  	mov rc,a
  91  0098  3C0A        	sz c
  91  0099  3010        	set intc.0
  91  009A  1B10        	rrca intc
  91  009B  3410        	clr intc.0
  91  009C  0700     E  	mov a,rb
  91  009D  00D9        	mov mduwr0,a
  91  009E  0700     E  	mov a,rc
"File: Robot_Arm_Main.c  Assembler  Version HGASM0202      Page 11

  91  009F  00DA        	mov mduwr1,a
  91  00A0  0F0A        	mov a,10
  91  00A1  00DD        	mov mduwr4,a
  91  00A2  0F00        	mov a,0
  91  00A3  00DE        	mov mduwr5,a
  91  00A4  0F06        	mov a,6
  91  00A5              _LI6:
  91  00A5  1785        	sdz acc
  91  00A6  2800     R  	jmp _LI6
  91  00A7  075D        	mov a,mduwr4
  91  00A8  0080     E  	mov rb,a
  91  00A9  075E        	mov a,mduwr5
  91  00AA  0080     E  	mov rc,a
  91  00AB  3C0A        	sz c
  91  00AC  3010        	set intc.0
  91  00AD  340A        	clr c
  91  00AE  1A80     E  	rlc rb
  91  00AF  1A80     E  	rlc rc
  91  00B0  0F00     R  	mov a,low offset _tag
  91  00B1  0300     E  	add a,rb
  91  00B2  0083        	mov mp,a
  91  00B3  0F00     R  	mov a,high offset _tag
  91  00B4  1300     E  	adc a,rc
  91  00B5  0084        	mov sbp,a
  91  00B6              	fcall _Crom2Prom
  91  00BD  00A7        	mov [39],a
  92  00BE              #line 92 "D:\Wade\Project\Robot_Arm\Holtek MCU\Program\Robot_Arm_Main\Robot_Arm_Main.c"
  92  00BE  0F1E        	mov a,30
  92  00BF  0080     R  	mov _delay_2[0],a
  92  00C0  1F00     R  	clr _delay_2[1]
  92  00C1              	fcall _delay
  93  00C8              #line 93 "D:\Wade\Project\Robot_Arm\Holtek MCU\Program\Robot_Arm_Main\Robot_Arm_Main.c"
  93  00C8  3524        	clr [36].2
  95  00C9              #line 95 "D:\Wade\Project\Robot_Arm\Holtek MCU\Program\Robot_Arm_Main\Robot_Arm_Main.c"
  95  00C9  31A4        	set [36].3
  96  00CA              #line 96 "D:\Wade\Project\Robot_Arm\Holtek MCU\Program\Robot_Arm_Main\Robot_Arm_Main.c"
  96  00CA  1B10        	rrca intc
  96  00CB  3410        	clr intc.0
  96  00CC  0700     R  	mov a,_Segment_2[0]
  96  00CD  00D9        	mov mduwr0,a
  96  00CE  0700     R  	mov a,_Segment_2[1]
  96  00CF  00DA        	mov mduwr1,a
  96  00D0  0F0A        	mov a,10
  96  00D1  00DD        	mov mduwr4,a
  96  00D2  0F00        	mov a,0
  96  00D3  00DE        	mov mduwr5,a
  96  00D4  0F06        	mov a,6
  96  00D5              _LI7:
  96  00D5  1785        	sdz acc
  96  00D6  2800     R  	jmp _LI7
  96  00D7  075D        	mov a,mduwr4
  96  00D8  0080     E  	mov rb,a
  96  00D9  075E        	mov a,mduwr5
  96  00DA  0080     E  	mov rc,a
  96  00DB  3C0A        	sz c
  96  00DC  3010        	set intc.0
  96  00DD  340A        	clr c
  96  00DE  1A80     E  	rlc rb
  96  00DF  1A80     E  	rlc rc
  96  00E0  0F00     R  	mov a,low offset _tag
"File: Robot_Arm_Main.c  Assembler  Version HGASM0202      Page 12

  96  00E1  0300     E  	add a,rb
  96  00E2  0083        	mov mp,a
  96  00E3  0F00     R  	mov a,high offset _tag
  96  00E4  1300     E  	adc a,rc
  96  00E5  0084        	mov sbp,a
  96  00E6              	fcall _Crom2Prom
  96  00ED  00A7        	mov [39],a
  97  00EE              #line 97 "D:\Wade\Project\Robot_Arm\Holtek MCU\Program\Robot_Arm_Main\Robot_Arm_Main.c"
  97  00EE  0F1E        	mov a,30
  97  00EF  0080     R  	mov _delay_2[0],a
  97  00F0  1F00     R  	clr _delay_2[1]
  97  00F1              	fcall _delay
  98  00F8              #line 98 "D:\Wade\Project\Robot_Arm\Holtek MCU\Program\Robot_Arm_Main\Robot_Arm_Main.c"
  98  00F8  35A4        	clr [36].3
  98  00F9  0003        	ret
  98  00FA              _Segment endp
  98  00FA              #line 98 "D:\Wade\Project\Robot_Arm\Holtek MCU\Program\Robot_Arm_Main\Robot_Arm_Main.c"
  98  00FA              #pragma debug scope 1 1
  98  00FA              ___wdtc equ [62]
  98  00FA              ___pgc equ [40]
  98  00FA              ___pfc equ [37]
  98  00FA              public _main
  98  00FA              #pragma debug scope 10 1
  28  00FA              #line 28 "D:\Wade\Project\Robot_Arm\Holtek MCU\Program\Robot_Arm_Main\Robot_Arm_Main.c"
  28  00FA              IFDEF WITH_DEFAULT_STARTUP
  28  00FA              extern _main_initial0:near
  28  00FA              extern _main_startup:near
  28  00FA              ENDIF
  28  00FA              
  28  00FA              ROMBANK 0 @start
  28  0000              @start .section com_l 'code'
  28  0000              _main_startup1:
  28  0000              @start .section com_e 'code'
  28  0000  0F00     R  	mov a,bank _main
  28  0001  008B        	mov bp,a
  28  0002  2800     R  	jmp _main
  28  0003              
  28  0000              _main .section 'code'
  28  0000              _main proc
  28  0000  00              local _main_2 db 1 dup(?)
  29  0001              #line 29 "D:\Wade\Project\Robot_Arm\Holtek MCU\Program\Robot_Arm_Main\Robot_Arm_Main.c"
  29  0000  0FAB        	mov a,171
  29  0001  00BE        	mov [62],a
  30  0002              #line 30 "D:\Wade\Project\Robot_Arm\Holtek MCU\Program\Robot_Arm_Main\Robot_Arm_Main.c"
  30  0002              	fcall _UART_Setup
  31  0009              #line 31 "D:\Wade\Project\Robot_Arm\Holtek MCU\Program\Robot_Arm_Main\Robot_Arm_Main.c"
  31  0009              	fcall _servo_setup
  33  0010              #line 33 "D:\Wade\Project\Robot_Arm\Holtek MCU\Program\Robot_Arm_Main\Robot_Arm_Main.c"
  33  0010  1F28        	clr [40]
  34  0011              #line 34 "D:\Wade\Project\Robot_Arm\Holtek MCU\Program\Robot_Arm_Main\Robot_Arm_Main.c"
  34  0011  0FF0        	mov a,240
  34  0012  06A5        	andm a,[37]
  34  0013              _L22:
  39  0013              #line 39 "D:\Wade\Project\Robot_Arm\Holtek MCU\Program\Robot_Arm_Main\Robot_Arm_Main.c"
  39  0013  0700     R  	mov a,_R_Data[0]
  39  0014  0A41        	sub a,65
  39  0015  390A        	snz z
  39  0016  2800     R  	jmp _L23
  41  0017              #line 41 "D:\Wade\Project\Robot_Arm\Holtek MCU\Program\Robot_Arm_Main\Robot_Arm_Main.c"
  41  0017  0F30        	mov a,48
"File: Robot_Arm_Main.c  Assembler  Version HGASM0202      Page 13

  41  0018  0300     R  	add a,_R_Data[3]
  41  0019  0080     E  	mov rf,a
  41  001A  0FEB        	mov a,235
  41  001B  1F00     E  	clr rg
  41  001C  1380     E  	adcm a,rg
  41  001D  1B10        	rrca intc
  41  001E  3410        	clr intc.0
  41  001F  0700     R  	mov a,_R_Data[1]
  41  0020  00D9        	mov mduwr0,a
  41  0021  0F64        	mov a,100
  41  0022  00DD        	mov mduwr4,a
  41  0023  1F5A        	clr mduwr1
  41  0024  0F00        	mov a,0
  41  0025  00DE        	mov mduwr5,a
  41  0026  0F06        	mov a,6
  41  0027              _LI8:
  41  0027  1785        	sdz acc
  41  0028  2800     R  	jmp _LI8
  41  0029  0759        	mov a,mduwr0
  41  002A  0080     E  	mov rb,a
  41  002B  075A        	mov a,mduwr1
  41  002C  0080     E  	mov rc,a
  41  002D  3C0A        	sz c
  41  002E  3010        	set intc.0
  41  002F  0700     E  	mov a,rb
  41  0030  0380     E  	addm a,rf
  41  0031  0700     E  	mov a,rc
  41  0032  1380     E  	adcm a,rg
  41  0033  0700     R  	mov a,_R_Data[2]
  41  0034  0080     E  	mov rd,a
  41  0035  1F00     E  	clr re
  41  0036  340A        	clr c
  41  0037  1A00     E  	rlca rd
  41  0038  0080     E  	mov rb,a
  41  0039  1A00     E  	rlca re
  41  003A  0080     E  	mov rc,a
  41  003B  340A        	clr c
  41  003C  1A80     E  	rlc rb
  41  003D  1A80     E  	rlc rc
  41  003E  0700     E  	mov a,rb
  41  003F  0380     E  	addm a,rd
  41  0040  0700     E  	mov a,rc
  41  0041  1380     E  	adcm a,re
  41  0042  340A        	clr c
  41  0043  1A80     E  	rlc rd
  41  0044  1A80     E  	rlc re
  41  0045  0700     E  	mov a,rd
  41  0046  0300     E  	add a,rf
  41  0047  0080     E  	mov rb,a
  41  0048  0700     E  	mov a,re
  41  0049  1300     E  	adc a,rg
  41  004A  0080     E  	mov rc,a
  42  004B              #line 42 "D:\Wade\Project\Robot_Arm\Holtek MCU\Program\Robot_Arm_Main\Robot_Arm_Main.c"
  42  004B  0FE6        	mov a,230
  42  004C  0200     E  	sub a,rb
  42  004D  00D2        	mov [82],a
  42  004E  1F53        	clr [83]
  43  004F              #line 43 "D:\Wade\Project\Robot_Arm\Holtek MCU\Program\Robot_Arm_Main\Robot_Arm_Main.c"
  43  004F  0700     E  	mov a,rb
  43  0050  0080     R  	mov _Segment_2[0],a
"File: Robot_Arm_Main.c  Assembler  Version HGASM0202      Page 14

  43  0051  0700     E  	mov a,rc
  43  0052  0080     R  	mov _Segment_2[1],a
  43  0053              	fcall _Segment
  43  005A              _L23:
  45  005A              #line 45 "D:\Wade\Project\Robot_Arm\Holtek MCU\Program\Robot_Arm_Main\Robot_Arm_Main.c"
  45  005A  0700     R  	mov a,_R_Data[0]
  45  005B  0080     R  	mov _main_2[0],a
  45  005C  0700     R  	mov a,_main_2[0]
  45  005D  0A42        	sub a,66
  45  005E  390A        	snz z
  45  005F  2800     R  	jmp _L24
  47  0060              #line 47 "D:\Wade\Project\Robot_Arm\Holtek MCU\Program\Robot_Arm_Main\Robot_Arm_Main.c"
  47  0060  0F30        	mov a,48
  47  0061  0300     R  	add a,_R_Data[3]
  47  0062  0080     E  	mov rf,a
  47  0063  0FEB        	mov a,235
  47  0064  1F00     E  	clr rg
  47  0065  1380     E  	adcm a,rg
  47  0066  1B10        	rrca intc
  47  0067  3410        	clr intc.0
  47  0068  0700     R  	mov a,_R_Data[1]
  47  0069  00D9        	mov mduwr0,a
  47  006A  0F64        	mov a,100
  47  006B  00DD        	mov mduwr4,a
  47  006C  1F5A        	clr mduwr1
  47  006D  0F00        	mov a,0
  47  006E  00DE        	mov mduwr5,a
  47  006F  0F06        	mov a,6
  47  0070              _LI9:
  47  0070  1785        	sdz acc
  47  0071  2800     R  	jmp _LI9
  47  0072  0759        	mov a,mduwr0
  47  0073  0080     E  	mov rb,a
  47  0074  075A        	mov a,mduwr1
  47  0075  0080     E  	mov rc,a
  47  0076  3C0A        	sz c
  47  0077  3010        	set intc.0
  47  0078  0700     E  	mov a,rb
  47  0079  0380     E  	addm a,rf
  47  007A  0700     E  	mov a,rc
  47  007B  1380     E  	adcm a,rg
  47  007C  0700     R  	mov a,_R_Data[2]
  47  007D  0080     E  	mov rd,a
  47  007E  1F00     E  	clr re
  47  007F  340A        	clr c
  47  0080  1A00     E  	rlca rd
  47  0081  0080     E  	mov rb,a
  47  0082  1A00     E  	rlca re
  47  0083  0080     E  	mov rc,a
  47  0084  340A        	clr c
  47  0085  1A80     E  	rlc rb
  47  0086  1A80     E  	rlc rc
  47  0087  0700     E  	mov a,rb
  47  0088  0380     E  	addm a,rd
  47  0089  0700     E  	mov a,rc
  47  008A  1380     E  	adcm a,re
  47  008B  340A        	clr c
  47  008C  1A80     E  	rlc rd
  47  008D  1A80     E  	rlc re
  47  008E  0700     E  	mov a,rd
"File: Robot_Arm_Main.c  Assembler  Version HGASM0202      Page 15

  47  008F  0300     E  	add a,rf
  47  0090  0080     E  	mov rb,a
  47  0091  0700     E  	mov a,re
  47  0092  1300     E  	adc a,rg
  47  0093  0080     E  	mov rc,a
  48  0094              #line 48 "D:\Wade\Project\Robot_Arm\Holtek MCU\Program\Robot_Arm_Main\Robot_Arm_Main.c"
  48  0094  0FE6        	mov a,230
  48  0095  0200     E  	sub a,rb
  48  0096  80B6 0001   	lmov [310],a
  48  0098  9F37 0001   	lclr [311]
  48  009A  2800     R  	jmp _L29
  48  009B              _L24:
  51  009B              #line 51 "D:\Wade\Project\Robot_Arm\Holtek MCU\Program\Robot_Arm_Main\Robot_Arm_Main.c"
  51  009B  0700     R  	mov a,_main_2[0]
  51  009C  0A43        	sub a,67
  51  009D  390A        	snz z
  51  009E  2800     R  	jmp _L26
  53  009F              #line 53 "D:\Wade\Project\Robot_Arm\Holtek MCU\Program\Robot_Arm_Main\Robot_Arm_Main.c"
  53  009F  0F30        	mov a,48
  53  00A0  0300     R  	add a,_R_Data[3]
  53  00A1  0080     E  	mov rf,a
  53  00A2  0FEB        	mov a,235
  53  00A3  1F00     E  	clr rg
  53  00A4  1380     E  	adcm a,rg
  53  00A5  1B10        	rrca intc
  53  00A6  3410        	clr intc.0
  53  00A7  0700     R  	mov a,_R_Data[1]
  53  00A8  00D9        	mov mduwr0,a
  53  00A9  0F64        	mov a,100
  53  00AA  00DD        	mov mduwr4,a
  53  00AB  1F5A        	clr mduwr1
  53  00AC  0F00        	mov a,0
  53  00AD  00DE        	mov mduwr5,a
  53  00AE  0F06        	mov a,6
  53  00AF              _LI10:
  53  00AF  1785        	sdz acc
  53  00B0  2800     R  	jmp _LI10
  53  00B1  0759        	mov a,mduwr0
  53  00B2  0080     E  	mov rb,a
  53  00B3  075A        	mov a,mduwr1
  53  00B4  0080     E  	mov rc,a
  53  00B5  3C0A        	sz c
  53  00B6  3010        	set intc.0
  53  00B7  0700     E  	mov a,rb
  53  00B8  0380     E  	addm a,rf
  53  00B9  0700     E  	mov a,rc
  53  00BA  1380     E  	adcm a,rg
  53  00BB  0700     R  	mov a,_R_Data[2]
  53  00BC  0080     E  	mov rd,a
  53  00BD  1F00     E  	clr re
  53  00BE  340A        	clr c
  53  00BF  1A00     E  	rlca rd
  53  00C0  0080     E  	mov rb,a
  53  00C1  1A00     E  	rlca re
  53  00C2  0080     E  	mov rc,a
  53  00C3  340A        	clr c
  53  00C4  1A80     E  	rlc rb
  53  00C5  1A80     E  	rlc rc
  53  00C6  0700     E  	mov a,rb
  53  00C7  0380     E  	addm a,rd
"File: Robot_Arm_Main.c  Assembler  Version HGASM0202      Page 16

  53  00C8  0700     E  	mov a,rc
  53  00C9  1380     E  	adcm a,re
  53  00CA  340A        	clr c
  53  00CB  1A80     E  	rlc rd
  53  00CC  1A80     E  	rlc re
  53  00CD  0700     E  	mov a,rd
  53  00CE  0300     E  	add a,rf
  53  00CF  0080     E  	mov rb,a
  53  00D0  0700     E  	mov a,re
  53  00D1  1300     E  	adc a,rg
  53  00D2  0080     E  	mov rc,a
  54  00D3              #line 54 "D:\Wade\Project\Robot_Arm\Holtek MCU\Program\Robot_Arm_Main\Robot_Arm_Main.c"
  54  00D3  0FD2        	mov a,210
  54  00D4  0200     E  	sub a,rb
  54  00D5  80BD 0001   	lmov [317],a
  54  00D7  9F3E 0001   	lclr [318]
  54  00D9  2800     R  	jmp _L29
  54  00DA              _L26:
  57  00DA              #line 57 "D:\Wade\Project\Robot_Arm\Holtek MCU\Program\Robot_Arm_Main\Robot_Arm_Main.c"
  57  00DA  0700     R  	mov a,_main_2[0]
  57  00DB  0A44        	sub a,68
  57  00DC  390A        	snz z
  57  00DD  2800     R  	jmp _L27
  59  00DE              #line 59 "D:\Wade\Project\Robot_Arm\Holtek MCU\Program\Robot_Arm_Main\Robot_Arm_Main.c"
  59  00DE  0F30        	mov a,48
  59  00DF  0300     R  	add a,_R_Data[3]
  59  00E0  0080     E  	mov rf,a
  59  00E1  0FEB        	mov a,235
  59  00E2  1F00     E  	clr rg
  59  00E3  1380     E  	adcm a,rg
  59  00E4  1B10        	rrca intc
  59  00E5  3410        	clr intc.0
  59  00E6  0700     R  	mov a,_R_Data[1]
  59  00E7  00D9        	mov mduwr0,a
  59  00E8  0F64        	mov a,100
  59  00E9  00DD        	mov mduwr4,a
  59  00EA  1F5A        	clr mduwr1
  59  00EB  0F00        	mov a,0
  59  00EC  00DE        	mov mduwr5,a
  59  00ED  0F06        	mov a,6
  59  00EE              _LI11:
  59  00EE  1785        	sdz acc
  59  00EF  2800     R  	jmp _LI11
  59  00F0  0759        	mov a,mduwr0
  59  00F1  0080     E  	mov rb,a
  59  00F2  075A        	mov a,mduwr1
  59  00F3  0080     E  	mov rc,a
  59  00F4  3C0A        	sz c
  59  00F5  3010        	set intc.0
  59  00F6  0700     E  	mov a,rb
  59  00F7  0380     E  	addm a,rf
  59  00F8  0700     E  	mov a,rc
  59  00F9  1380     E  	adcm a,rg
  59  00FA  0700     R  	mov a,_R_Data[2]
  59  00FB  0080     E  	mov rd,a
  59  00FC  1F00     E  	clr re
  59  00FD  340A        	clr c
  59  00FE  1A00     E  	rlca rd
  59  00FF  0080     E  	mov rb,a
  59  0100  1A00     E  	rlca re
"File: Robot_Arm_Main.c  Assembler  Version HGASM0202      Page 17

  59  0101  0080     E  	mov rc,a
  59  0102  340A        	clr c
  59  0103  1A80     E  	rlc rb
  59  0104  1A80     E  	rlc rc
  59  0105  0700     E  	mov a,rb
  59  0106  0380     E  	addm a,rd
  59  0107  0700     E  	mov a,rc
  59  0108  1380     E  	adcm a,re
  59  0109  340A        	clr c
  59  010A  1A80     E  	rlc rd
  59  010B  1A80     E  	rlc re
  59  010C  0700     E  	mov a,rd
  59  010D  0300     E  	add a,rf
  59  010E  0080     E  	mov rb,a
  59  010F  0700     E  	mov a,re
  59  0110  1300     E  	adc a,rg
  59  0111  0080     E  	mov rc,a
  60  0112              #line 60 "D:\Wade\Project\Robot_Arm\Holtek MCU\Program\Robot_Arm_Main\Robot_Arm_Main.c"
  60  0112  0FE6        	mov a,230
  60  0113  0200     E  	sub a,rb
  60  0114  00CA        	mov [74],a
  60  0115  1F4B        	clr [75]
  60  0116  2800     R  	jmp _L29
  60  0117              _L27:
  63  0117              #line 63 "D:\Wade\Project\Robot_Arm\Holtek MCU\Program\Robot_Arm_Main\Robot_Arm_Main.c"
  63  0117  0700     R  	mov a,_main_2[0]
  63  0118  0A45        	sub a,69
  63  0119  390A        	snz z
  63  011A  2800     R  	jmp _L28
  65  011B              #line 65 "D:\Wade\Project\Robot_Arm\Holtek MCU\Program\Robot_Arm_Main\Robot_Arm_Main.c"
  65  011B  0F30        	mov a,48
  65  011C  0300     R  	add a,_R_Data[3]
  65  011D  0080     E  	mov rf,a
  65  011E  0FEB        	mov a,235
  65  011F  1F00     E  	clr rg
  65  0120  1380     E  	adcm a,rg
  65  0121  1B10        	rrca intc
  65  0122  3410        	clr intc.0
  65  0123  0700     R  	mov a,_R_Data[1]
  65  0124  00D9        	mov mduwr0,a
  65  0125  0F64        	mov a,100
  65  0126  00DD        	mov mduwr4,a
  65  0127  1F5A        	clr mduwr1
  65  0128  0F00        	mov a,0
  65  0129  00DE        	mov mduwr5,a
  65  012A  0F06        	mov a,6
  65  012B              _LI12:
  65  012B  1785        	sdz acc
  65  012C  2800     R  	jmp _LI12
  65  012D  0759        	mov a,mduwr0
  65  012E  0080     E  	mov rb,a
  65  012F  075A        	mov a,mduwr1
  65  0130  0080     E  	mov rc,a
  65  0131  3C0A        	sz c
  65  0132  3010        	set intc.0
  65  0133  0700     E  	mov a,rb
  65  0134  0380     E  	addm a,rf
  65  0135  0700     E  	mov a,rc
  65  0136  1380     E  	adcm a,rg
  65  0137  0700     R  	mov a,_R_Data[2]
"File: Robot_Arm_Main.c  Assembler  Version HGASM0202      Page 18

  65  0138  0080     E  	mov rd,a
  65  0139  1F00     E  	clr re
  65  013A  340A        	clr c
  65  013B  1A00     E  	rlca rd
  65  013C  0080     E  	mov rb,a
  65  013D  1A00     E  	rlca re
  65  013E  0080     E  	mov rc,a
  65  013F  340A        	clr c
  65  0140  1A80     E  	rlc rb
  65  0141  1A80     E  	rlc rc
  65  0142  0700     E  	mov a,rb
  65  0143  0380     E  	addm a,rd
  65  0144  0700     E  	mov a,rc
  65  0145  1380     E  	adcm a,re
  65  0146  340A        	clr c
  65  0147  1A80     E  	rlc rd
  65  0148  1A80     E  	rlc re
  65  0149  0700     E  	mov a,rd
  65  014A  0300     E  	add a,rf
  65  014B  0080     E  	mov rb,a
  65  014C  0700     E  	mov a,re
  65  014D  1300     E  	adc a,rg
  65  014E  0080     E  	mov rc,a
  66  014F              #line 66 "D:\Wade\Project\Robot_Arm\Holtek MCU\Program\Robot_Arm_Main\Robot_Arm_Main.c"
  66  014F  0FE6        	mov a,230
  66  0150  0200     E  	sub a,rb
  66  0151  809E 0001   	lmov [286],a
  66  0153  9F1F 0001   	lclr [287]
  66  0155  2800     R  	jmp _L29
  66  0156              _L28:
  69  0156              #line 69 "D:\Wade\Project\Robot_Arm\Holtek MCU\Program\Robot_Arm_Main\Robot_Arm_Main.c"
  69  0156  0700     R  	mov a,_main_2[0]
  69  0157  0A46        	sub a,70
  69  0158  390A        	snz z
  69  0159  2800     R  	jmp _L22
  71  015A              #line 71 "D:\Wade\Project\Robot_Arm\Holtek MCU\Program\Robot_Arm_Main\Robot_Arm_Main.c"
  71  015A  0F30        	mov a,48
  71  015B  0300     R  	add a,_R_Data[3]
  71  015C  0080     E  	mov rf,a
  71  015D  0FEB        	mov a,235
  71  015E  1F00     E  	clr rg
  71  015F  1380     E  	adcm a,rg
  71  0160  1B10        	rrca intc
  71  0161  3410        	clr intc.0
  71  0162  0700     R  	mov a,_R_Data[1]
  71  0163  00D9        	mov mduwr0,a
  71  0164  0F64        	mov a,100
  71  0165  00DD        	mov mduwr4,a
  71  0166  1F5A        	clr mduwr1
  71  0167  0F00        	mov a,0
  71  0168  00DE        	mov mduwr5,a
  71  0169  0F06        	mov a,6
  71  016A              _LI13:
  71  016A  1785        	sdz acc
  71  016B  2800     R  	jmp _LI13
  71  016C  0759        	mov a,mduwr0
  71  016D  0080     E  	mov rb,a
  71  016E  075A        	mov a,mduwr1
  71  016F  0080     E  	mov rc,a
  71  0170  3C0A        	sz c
"File: Robot_Arm_Main.c  Assembler  Version HGASM0202      Page 19

  71  0171  3010        	set intc.0
  71  0172  0700     E  	mov a,rb
  71  0173  0380     E  	addm a,rf
  71  0174  0700     E  	mov a,rc
  71  0175  1380     E  	adcm a,rg
  71  0176  0700     R  	mov a,_R_Data[2]
  71  0177  0080     E  	mov rd,a
  71  0178  1F00     E  	clr re
  71  0179  340A        	clr c
  71  017A  1A00     E  	rlca rd
  71  017B  0080     E  	mov rb,a
  71  017C  1A00     E  	rlca re
  71  017D  0080     E  	mov rc,a
  71  017E  340A        	clr c
  71  017F  1A80     E  	rlc rb
  71  0180  1A80     E  	rlc rc
  71  0181  0700     E  	mov a,rb
  71  0182  0380     E  	addm a,rd
  71  0183  0700     E  	mov a,rc
  71  0184  1380     E  	adcm a,re
  71  0185  340A        	clr c
  71  0186  1A80     E  	rlc rd
  71  0187  1A80     E  	rlc re
  71  0188  0700     E  	mov a,rd
  71  0189  0300     E  	add a,rf
  71  018A  0080     E  	mov rb,a
  71  018B  0700     E  	mov a,re
  71  018C  1300     E  	adc a,rg
  71  018D  0080     E  	mov rc,a
  72  018E              #line 72 "D:\Wade\Project\Robot_Arm\Holtek MCU\Program\Robot_Arm_Main\Robot_Arm_Main.c"
  72  018E  0700     E  	mov a,rb
  72  018F  0B50        	add a,80
  72  0190  80A6 0001   	lmov [294],a
  72  0192  9F27 0001   	lclr [295]
  72  0194              _L29:
  73  0194              #line 73 "D:\Wade\Project\Robot_Arm\Holtek MCU\Program\Robot_Arm_Main\Robot_Arm_Main.c"
  73  0194  0700     E  	mov a,rb
  73  0195  0080     R  	mov _Segment_2[0],a
  73  0196  0700     E  	mov a,rc
  73  0197  0080     R  	mov _Segment_2[1],a
  73  0198              	fcall _Segment
  73  019F  2800     R  	jmp _L22
  73  01A0  2800     R  	jmp $
  73  01A1              _main endp
  73  01A1              
  73  01A1              @dummy endp
  73  01A1              
  73  01A1              #line 73 "D:\Wade\Project\Robot_Arm\Holtek MCU\Program\Robot_Arm_Main\Robot_Arm_Main.c"
  73  01A1              #pragma debug scope 1 1
  73  01A1              public _kn
  73  0000              @HCCINIT	.section 'data'
  19  0000              #line 19 "D:\Wade\Project\Robot_Arm\Holtek MCU\Program\Robot_Arm_Main\Robot_Arm_Main.c"
  19  0000              @HCCINIT_kn .section 'data'
  19  0000              _kn label byte
  19  0000              #pragma debug variable 10 1 _kn "kn"
  19  0000              	db 0
  19  0000              @ROMDATA_BASE .section inpage 'code'
  19  0000              	db 0
  19  0001              @HCCINIT_kn .section 'data'
  19  0001              	db 0
"File: Robot_Arm_Main.c  Assembler  Version HGASM0202      Page 20

  19  0001              @ROMDATA_BASE .section inpage 'code'
  19  0001              	db 0
  19  0002              @HCCINIT_kn .section 'data'
  18  0002              #line 18 "D:\Wade\Project\Robot_Arm\Holtek MCU\Program\Robot_Arm_Main\Robot_Arm_Main.c"
  18  0002              public _R_Data
  18  0000              @HCCINIT0_R_Data .section 'data'
  18  0000  000A[       _R_Data	db 10 dup(0)
            00
            ]
  18  000A              #pragma debug array 42 8 10 1
  18  000A              #pragma debug array 42 8 10 1
  18  000A              #pragma debug variable 42 1 _R_Data "R_Data"
  18  000A              
  18  0000              @HCCINIT .section 'data'
  18  0000              public _scan
  18  0000              @crom	.section 'crom'
  11  0000              #line 11 "D:\Wade\Project\Robot_Arm\Holtek MCU\Program\Robot_Arm_Main\Robot_Arm_Main.c"
  11  0000              @crom	.section	'crom'
  11  0000              _scan:
  11  0000              #pragma debug array 43 10 4 1
  11  0000              #pragma debug array 43 10 4 1
  11  0000              #pragma debug variable 43 1 _scan "scan"
  11  0000  0001        	dc 1
  11  0001  0002        	dc 2
  11  0002  0004        	dc 4
  11  0003  0008        	dc 8
  11  0004              public _tag
   8  0004              #line 8 "D:\Wade\Project\Robot_Arm\Holtek MCU\Program\Robot_Arm_Main\Robot_Arm_Main.c"
   8  0004              @crom	.section	'crom'
   8  0004              _tag:
   8  0004              #pragma debug array 44 10 10 1
   8  0004              #pragma debug array 44 10 10 1
   8  0004              #pragma debug variable 44 1 _tag "tag"
   8  0004  003F        	dc 63
   8  0005  0006        	dc 6
   8  0006  005B        	dc 91
   8  0007  004F        	dc 79
   8  0008  0066        	dc 102
   8  0009  006D        	dc 109
   8  000A  007D        	dc 125
   8  000B  0027        	dc 39
   8  000C  007F        	dc 127
   8  000D  006F        	dc 111
   8  000E              #pragma debug struct_end
   8  000E              #pragma debug struct_end
   8  000E              #pragma debug union_end
   8  000E              #pragma debug union_end
   8  000E              #pragma debug variable 46 1 ___intc0 "__intc0" 1
   8  000E              #pragma debug struct_end
   8  000E              #pragma debug struct_end
   8  000E              #pragma debug union_end
   8  000E              #pragma debug union_end
   8  000E              #pragma debug variable 48 1 ___intc3 "__intc3" 1
   8  000E              #pragma debug struct_end
   8  000E              #pragma debug struct_end
   8  000E              #pragma debug union_end
   8  000E              #pragma debug union_end
   8  000E              #pragma debug variable 50 1 ___pf "__pf" 1
   8  000E              #pragma debug struct_end
   8  000E              #pragma debug struct_end
"File: Robot_Arm_Main.c  Assembler  Version HGASM0202      Page 21

   8  000E              #pragma debug union_end
   8  000E              #pragma debug union_end
   8  000E              #pragma debug variable 52 1 ___pfc "__pfc" 1
   8  000E              #pragma debug struct_end
   8  000E              #pragma debug struct_end
   8  000E              #pragma debug union_end
   8  000E              #pragma debug union_end
   8  000E              #pragma debug variable 54 1 ___pg "__pg" 1
   8  000E              #pragma debug struct_end
   8  000E              #pragma debug struct_end
   8  000E              #pragma debug union_end
   8  000E              #pragma debug union_end
   8  000E              #pragma debug variable 56 1 ___pgc "__pgc" 1
   8  000E              #pragma debug struct_end
   8  000E              #pragma debug struct_end
   8  000E              #pragma debug union_end
   8  000E              #pragma debug union_end
   8  000E              #pragma debug variable 58 1 ___mfi5 "__mfi5" 1
   8  000E              #pragma debug struct_end
   8  000E              #pragma debug struct_end
   8  000E              #pragma debug union_end
   8  000E              #pragma debug union_end
   8  000E              #pragma debug variable 60 1 ___wdtc "__wdtc" 1
   8  000E              #pragma debug struct_end
   8  000E              #pragma debug struct_end
   8  000E              #pragma debug union_end
   8  000E              #pragma debug union_end
   8  000E              #pragma debug variable 62 1 ___ptm0c0 "__ptm0c0" 1
   8  000E              #pragma debug struct_end
   8  000E              #pragma debug struct_end
   8  000E              #pragma debug union_end
   8  000E              #pragma debug union_end
   8  000E              #pragma debug variable 64 1 ___ptm0c1 "__ptm0c1" 1
   8  000E              #pragma debug variable 8 1 ___ptm0al "__ptm0al" 1
   8  000E              #pragma debug variable 8 1 ___ptm0ah "__ptm0ah" 1
   8  000E              #pragma debug struct_end
   8  000E              #pragma debug struct_end
   8  000E              #pragma debug union_end
   8  000E              #pragma debug union_end
   8  000E              #pragma debug variable 66 1 ___ptm0rpl "__ptm0rpl" 1
   8  000E              #pragma debug struct_end
   8  000E              #pragma debug struct_end
   8  000E              #pragma debug union_end
   8  000E              #pragma debug union_end
   8  000E              #pragma debug variable 68 1 ___ptm0rph "__ptm0rph" 1
   8  000E              #pragma debug struct_end
   8  000E              #pragma debug struct_end
   8  000E              #pragma debug union_end
   8  000E              #pragma debug union_end
   8  000E              #pragma debug variable 70 1 ___stm0c0 "__stm0c0" 1
   8  000E              #pragma debug struct_end
   8  000E              #pragma debug struct_end
   8  000E              #pragma debug union_end
   8  000E              #pragma debug union_end
   8  000E              #pragma debug variable 72 1 ___stm0c1 "__stm0c1" 1
   8  000E              #pragma debug variable 8 1 ___stm0al "__stm0al" 1
   8  000E              #pragma debug variable 8 1 ___stm0ah "__stm0ah" 1
   8  000E              #pragma debug struct_end
   8  000E              #pragma debug struct_end
   8  000E              #pragma debug union_end
"File: Robot_Arm_Main.c  Assembler  Version HGASM0202      Page 22

   8  000E              #pragma debug union_end
   8  000E              #pragma debug variable 74 1 ___stm0rp "__stm0rp" 1
   8  000E              #pragma debug struct_end
   8  000E              #pragma debug struct_end
   8  000E              #pragma debug union_end
   8  000E              #pragma debug union_end
   8  000E              #pragma debug variable 76 1 ___u0sr "__u0sr" 1
   8  000E              #pragma debug struct_end
   8  000E              #pragma debug struct_end
   8  000E              #pragma debug union_end
   8  000E              #pragma debug union_end
   8  000E              #pragma debug variable 78 1 ___u0cr1 "__u0cr1" 1
   8  000E              #pragma debug struct_end
   8  000E              #pragma debug struct_end
   8  000E              #pragma debug union_end
   8  000E              #pragma debug union_end
   8  000E              #pragma debug variable 80 1 ___u0cr2 "__u0cr2" 1
   8  000E              #pragma debug variable 8 1 ___txr_rxr0 "__txr_rxr0" 1
   8  000E              #pragma debug variable 8 1 ___brg0 "__brg0" 1
   8  000E              #pragma debug struct_end
   8  000E              #pragma debug struct_end
   8  000E              #pragma debug union_end
   8  000E              #pragma debug union_end
   8  000E              #pragma debug variable 82 1 ___ptm1c0 "__ptm1c0" 1
   8  000E              #pragma debug struct_end
   8  000E              #pragma debug struct_end
   8  000E              #pragma debug union_end
   8  000E              #pragma debug union_end
   8  000E              #pragma debug variable 84 1 ___ptm1c1 "__ptm1c1" 1
   8  000E              #pragma debug variable 8 1 ___ptm1al "__ptm1al" 1
   8  000E              #pragma debug variable 8 1 ___ptm1ah "__ptm1ah" 1
   8  000E              #pragma debug struct_end
   8  000E              #pragma debug struct_end
   8  000E              #pragma debug union_end
   8  000E              #pragma debug union_end
   8  000E              #pragma debug variable 86 1 ___ptm1rpl "__ptm1rpl" 1
   8  000E              #pragma debug struct_end
   8  000E              #pragma debug struct_end
   8  000E              #pragma debug union_end
   8  000E              #pragma debug union_end
   8  000E              #pragma debug variable 88 1 ___ptm1rph "__ptm1rph" 1
   8  000E              #pragma debug struct_end
   8  000E              #pragma debug struct_end
   8  000E              #pragma debug union_end
   8  000E              #pragma debug union_end
   8  000E              #pragma debug variable 90 1 ___ptm2c0 "__ptm2c0" 1
   8  000E              #pragma debug struct_end
   8  000E              #pragma debug struct_end
   8  000E              #pragma debug union_end
   8  000E              #pragma debug union_end
   8  000E              #pragma debug variable 92 1 ___ptm2c1 "__ptm2c1" 1
   8  000E              #pragma debug variable 8 1 ___ptm2al "__ptm2al" 1
   8  000E              #pragma debug variable 8 1 ___ptm2ah "__ptm2ah" 1
   8  000E              #pragma debug struct_end
   8  000E              #pragma debug struct_end
   8  000E              #pragma debug union_end
   8  000E              #pragma debug union_end
   8  000E              #pragma debug variable 94 1 ___ptm2rpl "__ptm2rpl" 1
   8  000E              #pragma debug struct_end
   8  000E              #pragma debug struct_end
"File: Robot_Arm_Main.c  Assembler  Version HGASM0202      Page 23

   8  000E              #pragma debug union_end
   8  000E              #pragma debug union_end
   8  000E              #pragma debug variable 96 1 ___ptm2rph "__ptm2rph" 1
   8  000E              #pragma debug struct_end
   8  000E              #pragma debug struct_end
   8  000E              #pragma debug union_end
   8  000E              #pragma debug union_end
   8  000E              #pragma debug variable 98 1 ___stm1c0 "__stm1c0" 1
   8  000E              #pragma debug struct_end
   8  000E              #pragma debug struct_end
   8  000E              #pragma debug union_end
   8  000E              #pragma debug union_end
   8  000E              #pragma debug variable 100 1 ___stm1c1 "__stm1c1" 1
   8  000E              #pragma debug variable 8 1 ___stm1al "__stm1al" 1
   8  000E              #pragma debug variable 8 1 ___stm1ah "__stm1ah" 1
   8  000E              #pragma debug struct_end
   8  000E              #pragma debug struct_end
   8  000E              #pragma debug union_end
   8  000E              #pragma debug union_end
   8  000E              #pragma debug variable 102 1 ___stm1rp "__stm1rp" 1
   8  000E              #pragma debug struct_end
   8  000E              #pragma debug struct_end
   8  000E              #pragma debug union_end
   8  000E              #pragma debug union_end
   8  000E              #pragma debug variable 104 1 ___stm2c0 "__stm2c0" 1
   8  000E              #pragma debug struct_end
   8  000E              #pragma debug struct_end
   8  000E              #pragma debug union_end
   8  000E              #pragma debug union_end
   8  000E              #pragma debug variable 106 1 ___stm2c1 "__stm2c1" 1
   8  000E              #pragma debug variable 8 1 ___stm2al "__stm2al" 1
   8  000E              #pragma debug variable 8 1 ___stm2ah "__stm2ah" 1
   8  000E              #pragma debug struct_end
   8  000E              #pragma debug struct_end
   8  000E              #pragma debug union_end
   8  000E              #pragma debug union_end
   8  000E              #pragma debug variable 108 1 ___stm2rp "__stm2rp" 1
   8  000E              #pragma debug struct_end
   8  000E              #pragma debug struct_end
   8  000E              #pragma debug union_end
   8  000E              #pragma debug union_end
   8  000E              #pragma debug variable 110 1 ___pas1 "__pas1" 1
   8  000E              #pragma debug struct_end
   8  000E              #pragma debug struct_end
   8  000E              #pragma debug union_end
   8  000E              #pragma debug union_end
   8  000E              #pragma debug variable 112 1 ___pcs0 "__pcs0" 1
   8  000E              #pragma debug struct_end
   8  000E              #pragma debug struct_end
   8  000E              #pragma debug union_end
   8  000E              #pragma debug union_end
   8  000E              #pragma debug variable 114 1 ___pcs1 "__pcs1" 1
   8  000E              #pragma debug struct_end
   8  000E              #pragma debug struct_end
   8  000E              #pragma debug union_end
   8  000E              #pragma debug union_end
   8  000E              #pragma debug variable 116 1 ___pds0 "__pds0" 1
   8  000E              #pragma debug struct_end
   8  000E              #pragma debug struct_end
   8  000E              #pragma debug union_end
"File: Robot_Arm_Main.c  Assembler  Version HGASM0202      Page 24

   8  000E              #pragma debug union_end
   8  000E              #pragma debug variable 118 1 ___pfs1 "__pfs1" 1
   8  000E              extern r1:byte
   8  000E              extern r2:byte
   8  000E              extern r3:byte
   8  000E              extern r4:byte
   8  000E              extern r5:byte
   8  000E              extern r6:byte
   8  000E              extern r7:byte
  28  000E              #line 28 "D:\Wade\Project\Robot_Arm\Holtek MCU\Program\Robot_Arm_Main\Robot_Arm_Main.c"
  28  0000              @code .section at 0 'code'
  28  0000  1F0B        	clr bp
  28  0001  2800     R  	jmp _main_startup1
  28  0002              
  28  0002              
  28  0002              ; 
  28  0002              ; Generated by holtek-gcc v3.19, Tue Jul 27 16:29:10 2021
  28  0002              ; Rebuild 718
  28  0002              ; end of file


        0 Errors, 0