"File: Motor_v1.c    Assembler  Version HGASM0202      Page 1


   1  0000              ; Generated by holtek-gcc v3.19, Mon Dec 20 21:31:32 2021
   2  0000              ; 
   3  0000              ; Configuration:
   4  0000              ;       with long instruction
   5  0000              ;       Multi-ROM, Multi-RAM
   6  0000              ;       bits_per_rom_unit:16
   7  0000              ;       with mp1
   8  0000              ;       with tbhp, address(0x9)
   9  0000              ;          Use tabrd-const
  10  0000              ;       
  11  0000              ; SFR address of long-instruction arch:
  12  0000              ;    mp0 = -1,1,0
  13  0000              ;    mp1 = 4,3,2
  14  0000              ;    mp2 = 14,13,12
  15  0000              ;    tbp = 9,7,8
  16  0000              ;    acc = 5
  17  0000              ;    pcl = 6
  18  0000              ;    status = 10
  19  0000              ;    bp = 11
  20  0000              ;    intc = 16
  21  0000              ;       
  22  0000              ;       
  23  0000              ; use 'tabrdc' instead of 'tabrd'
  24  0000              ;       
  25  0000              
  26  0000              #pragma translator "holtek-gcc 4.6.4" "3.19" "build 20130711"
  27  0000              ; Rebuild 718
  28  0000              
  29  0000              ir equ [2]
  30  0000              mp equ [3]
  31  0000              sbp equ [4]
  32  0000              acc equ [5]
  33  0000              bp equ [11]
  34  0000              tblp equ [7]
  35  0000              tbhp equ [9]
  36  0000              status equ [10]
  37  0000              c equ [10].0
  38  0000              ac equ [10].1
  39  0000              z equ [10].2
  40  0000              ov equ [10].3
  41  0000              cz equ [10].6
  42  0000              sc equ [10].7
  43  0000              intc equ [16]
  44  0000              mduwr0 equ [59h]
  45  0000              mduwr1 equ [5ah]
  46  0000              mduwr2 equ [5bh]
  47  0000              mduwr3 equ [5ch]
  48  0000              mduwr4 equ [5dh]
  49  0000              mduwr5 equ [5eh]
  50  0000              mduwrctrl equ [5fh]
  51  0000              
  52  0000              extern ra:byte
  53  0000              extern rb:byte
  54  0000              extern rc:byte
  55  0000              extern rd:byte
  56  0000              extern re:byte
  57  0000              extern rf:byte
  58  0000              extern rg:byte
  59  0000              extern rh:byte
"File: Motor_v1.ASM  Assembler  Version HGASM0202      Page 2

  60  0000              extern _Crom2Prom:near
  61  0000              extern _Crom2PromNext:near
  62  0000              
  63  0000              RAMBANK 0 @BITDATASEC, @BITDATASEC1
  64  0000              @HCCINIT	.section 'data'
  65  0000              @HCCINIT0	.section 'data'
  66  0000              @BITDATASEC	 .section 'data'
  67  0000              @BITDATASEC1	 .section 'data'
  68  0000              
  69  0000              #pragma debug scope 1 1
  70  0000              	extern __DELAY3:near
  71  0000              	extern __DELAYX3:near
  72  0000              	extern __DELAYX6:near
  73  0000              	extern __DELAYY5:near
  74  0000              	extern __DELAYY3:near
  75  0000              	extern _builtin_holtek_delay_2:byte
  76  0000              ___stm0c0 equ [78]
  77  0000              ___stm0c1 equ [79]
  78  0000              ___intc0 equ [16]
  79  0000              ___intc1 equ [17]
  80  0000              ___mfi0 equ [51]
  81  0000              public _stm_setup
  82  0000              #pragma debug scope 2 1

  94  0000              #line 94 "D:\Wade\Project\Robot_Arm\Holtek_MCU\Program\Motor_v1\Motor_v1.c"
  94  0000              _stm_setup .section 'code'
  94  0000              _stm_setup proc
  95  0000              #line 95 "D:\Wade\Project\Robot_Arm\Holtek_MCU\Program\Motor_v1\Motor_v1.c"
  95  0000  1F4E        	clr [78]
  96  0001              #line 96 "D:\Wade\Project\Robot_Arm\Holtek_MCU\Program\Motor_v1\Motor_v1.c"
  96  0001  0FC1        	mov a,193
  96  0002  00CF        	mov [79],a
  97  0003              #line 97 "D:\Wade\Project\Robot_Arm\Holtek_MCU\Program\Motor_v1\Motor_v1.c"
  97  0003  3010        	set [16].0
  98  0004              #line 98 "D:\Wade\Project\Robot_Arm\Holtek_MCU\Program\Motor_v1\Motor_v1.c"
  98  0004  3091        	set [17].1
  99  0005              #line 99 "D:\Wade\Project\Robot_Arm\Holtek_MCU\Program\Motor_v1\Motor_v1.c"
  99  0005  31B3        	set [51].3
 100  0006              #line 100 "D:\Wade\Project\Robot_Arm\Holtek_MCU\Program\Motor_v1\Motor_v1.c"
 100  0006  37B3        	clr [51].7
 100  0007  0003        	ret
 100  0008              _stm_setup endp
 100  0008              #line 100 "D:\Wade\Project\Robot_Arm\Holtek_MCU\Program\Motor_v1\Motor_v1.c"
 100  0008              #pragma debug scope 1 1
 100  0008              ___stm0al equ [82]
 100  0008              ___stm0ah equ [83]
 100  0008              public _stm_delay
 100  0008              #pragma debug scope 3 1
 104  0008              #line 104 "D:\Wade\Project\Robot_Arm\Holtek_MCU\Program\Motor_v1\Motor_v1.c"
 104  0000              _stm_delay .section 'code'
 104  0000              _stm_delay proc
 104  0000              public _stm_delay_2
 104  0000  0002[           local _stm_delay_2 db 2 dup(?)	; 2,0
            00
            ]
 104  0002              #pragma debug variable 10 3 _stm_delay_2+0 "tm"
 105  0002              #line 105 "D:\Wade\Project\Robot_Arm\Holtek_MCU\Program\Motor_v1\Motor_v1.c"
 105  0000  0700     R  	mov a,_stm_delay_2[0]
 105  0001  00D2        	mov [82],a
 106  0002              #line 106 "D:\Wade\Project\Robot_Arm\Holtek_MCU\Program\Motor_v1\Motor_v1.c"
"File: Motor_v1.c    Assembler  Version HGASM0202      Page 3

 106  0002  0700     R  	mov a,_stm_delay_2[1]
 106  0003  00D3        	mov [83],a
 107  0004              #line 107 "D:\Wade\Project\Robot_Arm\Holtek_MCU\Program\Motor_v1\Motor_v1.c"
 107  0004  31CE        	set [78].3
 107  0005              _L4:
 108  0005              #line 108 "D:\Wade\Project\Robot_Arm\Holtek_MCU\Program\Motor_v1\Motor_v1.c"
 108  0005  3BB3        	snz [51].7
 108  0006  2800     R  	jmp _L4
 109  0007              #line 109 "D:\Wade\Project\Robot_Arm\Holtek_MCU\Program\Motor_v1\Motor_v1.c"
 109  0007  35CE        	clr [78].3
 110  0008              #line 110 "D:\Wade\Project\Robot_Arm\Holtek_MCU\Program\Motor_v1\Motor_v1.c"
 110  0008  37B3        	clr [51].7
 110  0009  0003        	ret
 110  000A              _stm_delay endp
 110  000A              #line 110 "D:\Wade\Project\Robot_Arm\Holtek_MCU\Program\Motor_v1\Motor_v1.c"
 110  000A              #pragma debug scope 1 1
 110  000A              ___pd equ [30]
 110  000A              ___pc equ [27]
 110  000A              public _motor_callb
 110  000A              #pragma debug scope 4 1
  66  000A              #line 66 "D:\Wade\Project\Robot_Arm\Holtek_MCU\Program\Motor_v1\Motor_v1.c"
  66  0000              _motor_callb .section 'code'
  66  0000              _motor_callb proc
  67  0000              #line 67 "D:\Wade\Project\Robot_Arm\Holtek_MCU\Program\Motor_v1\Motor_v1.c"
  67  0000  361E        	clr [30].4
  68  0001              #line 68 "D:\Wade\Project\Robot_Arm\Holtek_MCU\Program\Motor_v1\Motor_v1.c"
  68  0001  361B        	clr [27].4
  69  0002              #line 69 "D:\Wade\Project\Robot_Arm\Holtek_MCU\Program\Motor_v1\Motor_v1.c"
  69  0002  2800     R  	jmp _L7
  69  0003              _L8:
  71  0003              #line 71 "D:\Wade\Project\Robot_Arm\Holtek_MCU\Program\Motor_v1\Motor_v1.c"
  71  0003  359E        	clr [30].3
  72  0004              #line 72 "D:\Wade\Project\Robot_Arm\Holtek_MCU\Program\Motor_v1\Motor_v1.c"
  72  0004  0FC8        	mov a,-56
  72  0005  0080     R  	mov _stm_delay_2[0],a
  72  0006  1F00     R  	clr _stm_delay_2[1]
  72  0007              	fcall _stm_delay
  73  000E              #line 73 "D:\Wade\Project\Robot_Arm\Holtek_MCU\Program\Motor_v1\Motor_v1.c"
  73  000E  319E        	set [30].3
  74  000F              #line 74 "D:\Wade\Project\Robot_Arm\Holtek_MCU\Program\Motor_v1\Motor_v1.c"
  74  000F  0FC8        	mov a,-56
  74  0010  0080     R  	mov _stm_delay_2[0],a
  74  0011  1F00     R  	clr _stm_delay_2[1]
  74  0012              	fcall _stm_delay
  74  0019              _L7:
  69  0019              #line 69 "D:\Wade\Project\Robot_Arm\Holtek_MCU\Program\Motor_v1\Motor_v1.c"
  69  0019  3D9B        	sz [27].3
  69  001A  2800     R  	jmp _L8
  69  001B  0003        	ret
  69  001C              _motor_callb endp
  69  001C              #line 69 "D:\Wade\Project\Robot_Arm\Holtek_MCU\Program\Motor_v1\Motor_v1.c"
  69  001C              #pragma debug scope 1 1
  69  001C              public _motor_deg
  69  001C              #pragma debug scope 5 1
  79  001C              #line 79 "D:\Wade\Project\Robot_Arm\Holtek_MCU\Program\Motor_v1\Motor_v1.c"
  79  0000              _motor_deg .section 'code'
  79  0000              _motor_deg proc
  79  0000              public _motor_deg_2
  79  0000  0007[           local _motor_deg_2 db 7 dup(?)	; 4,3
            00
"File: Motor_v1.c    Assembler  Version HGASM0202      Page 4

            ]
  79  0007              #pragma debug variable 10 5 _motor_deg_2+0 "deg"
  79  0007              #pragma debug variable 10 5 _motor_deg_2+2 "time"
  79  0007              #pragma debug variable 10 5 _motor_deg_2+4 "j"
  81  0007              #line 81 "D:\Wade\Project\Robot_Arm\Holtek_MCU\Program\Motor_v1\Motor_v1.c"
  81  0000  1F00     R  	clr _motor_deg_2[4]
  81  0001  1F00     R  	clr _motor_deg_2[5]
  81  0002              _L10:
  81  0002              #line 81 "D:\Wade\Project\Robot_Arm\Holtek_MCU\Program\Motor_v1\Motor_v1.c"
  81  0002  0700     R  	mov a,_motor_deg_2[4]
  81  0003  0200     R  	sub a,_motor_deg_2[0]
  81  0004  0700     R  	mov a,_motor_deg_2[5]
  81  0005  1200     R  	sbc a,_motor_deg_2[1]
  81  0006  3F0A        	sz cz
  81  0007  2800     R  	jmp _L9
  81  0008  1F00     R  	clr _motor_deg_2[6]
  81  0009              _L13:
  85  0009              #line 85 "D:\Wade\Project\Robot_Arm\Holtek_MCU\Program\Motor_v1\Motor_v1.c"
  85  0009  359E        	clr [30].3
  86  000A              #line 86 "D:\Wade\Project\Robot_Arm\Holtek_MCU\Program\Motor_v1\Motor_v1.c"
  86  000A  0700     R  	mov a,_motor_deg_2[2]
  86  000B  0080     R  	mov _stm_delay_2[0],a
  86  000C  0700     R  	mov a,_motor_deg_2[3]
  86  000D  0080     R  	mov _stm_delay_2[1],a
  86  000E              	fcall _stm_delay
  87  0015              #line 87 "D:\Wade\Project\Robot_Arm\Holtek_MCU\Program\Motor_v1\Motor_v1.c"
  87  0015  319E        	set [30].3
  88  0016              #line 88 "D:\Wade\Project\Robot_Arm\Holtek_MCU\Program\Motor_v1\Motor_v1.c"
  88  0016  0700     R  	mov a,_motor_deg_2[2]
  88  0017  0080     R  	mov _stm_delay_2[0],a
  88  0018  0700     R  	mov a,_motor_deg_2[3]
  88  0019  0080     R  	mov _stm_delay_2[1],a
  88  001A              	fcall _stm_delay
  88  0021  1480     R  	inc _motor_deg_2[6]
  83  0022              #line 83 "D:\Wade\Project\Robot_Arm\Holtek_MCU\Program\Motor_v1\Motor_v1.c"
  83  0022  0700     R  	mov a,_motor_deg_2[6]
  83  0023  0A09        	sub a,9
  83  0024  390A        	snz z
  83  0025  2800     R  	jmp _L13
  81  0026              #line 81 "D:\Wade\Project\Robot_Arm\Holtek_MCU\Program\Motor_v1\Motor_v1.c"
  81  0026  1480     R  	inc _motor_deg_2[4]
  81  0027  3D0A        	sz z
  81  0028  1480     R  	inc _motor_deg_2[5]
  81  0029  2800     R  	jmp _L10
  81  002A              _L9:
  81  002A  0003        	ret
  81  002B              _motor_deg endp
  81  002B              #line 81 "D:\Wade\Project\Robot_Arm\Holtek_MCU\Program\Motor_v1\Motor_v1.c"
  81  002B              #pragma debug scope 1 1
  81  002B              ___ptm3c0 equ [298]
  81  002B              ___ptm3c1 equ [299]
  81  002B              ___intc3 equ [19]
  81  002B              ___mfi4 equ [55]
  81  002B              public _ptm_setup
  81  002B              #pragma debug scope 6 1
 114  002B              #line 114 "D:\Wade\Project\Robot_Arm\Holtek_MCU\Program\Motor_v1\Motor_v1.c"
 114  0000              _ptm_setup .section 'code'
 114  0000              _ptm_setup proc
 115  0000              #line 115 "D:\Wade\Project\Robot_Arm\Holtek_MCU\Program\Motor_v1\Motor_v1.c"
 115  0000  9F2A 0001   	lclr [298]
"File: Motor_v1.c    Assembler  Version HGASM0202      Page 5

 116  0002              #line 116 "D:\Wade\Project\Robot_Arm\Holtek_MCU\Program\Motor_v1\Motor_v1.c"
 116  0002  0FC1        	mov a,193
 116  0003  80AB 0001   	lmov [299],a
 117  0005              #line 117 "D:\Wade\Project\Robot_Arm\Holtek_MCU\Program\Motor_v1\Motor_v1.c"
 117  0005  3010        	set [16].0
 118  0006              #line 118 "D:\Wade\Project\Robot_Arm\Holtek_MCU\Program\Motor_v1\Motor_v1.c"
 118  0006  3113        	set [19].2
 119  0007              #line 119 "D:\Wade\Project\Robot_Arm\Holtek_MCU\Program\Motor_v1\Motor_v1.c"
 119  0007  30B7        	set [55].1
 120  0008              #line 120 "D:\Wade\Project\Robot_Arm\Holtek_MCU\Program\Motor_v1\Motor_v1.c"
 120  0008  36B7        	clr [55].5
 120  0009  0003        	ret
 120  000A              _ptm_setup endp
 120  000A              #line 120 "D:\Wade\Project\Robot_Arm\Holtek_MCU\Program\Motor_v1\Motor_v1.c"
 120  000A              #pragma debug scope 1 1
 120  000A              ___ptm3al equ [302]
 120  000A              ___ptm3ah equ [303]
 120  000A              public _ptm_delay
 120  000A              #pragma debug scope 7 1
 124  000A              #line 124 "D:\Wade\Project\Robot_Arm\Holtek_MCU\Program\Motor_v1\Motor_v1.c"
 124  0000              _ptm_delay .section 'code'
 124  0000              _ptm_delay proc
 124  0000              public _ptm_delay_2
 124  0000  0002[           local _ptm_delay_2 db 2 dup(?)	; 2,0
            00
            ]
 124  0002              #pragma debug variable 12 7 _ptm_delay_2+0 "tm"
 125  0002              #line 125 "D:\Wade\Project\Robot_Arm\Holtek_MCU\Program\Motor_v1\Motor_v1.c"
 125  0000  0700     R  	mov a,_ptm_delay_2[0]
 125  0001  80AE 0001   	lmov [302],a
 126  0003              #line 126 "D:\Wade\Project\Robot_Arm\Holtek_MCU\Program\Motor_v1\Motor_v1.c"
 126  0003  0700     R  	mov a,_ptm_delay_2[1]
 126  0004  80AF 0001   	lmov [303],a
 127  0006              #line 127 "D:\Wade\Project\Robot_Arm\Holtek_MCU\Program\Motor_v1\Motor_v1.c"
 127  0006  B1AA 0001   	lset [298].3
 127  0008              _L17:
 128  0008              #line 128 "D:\Wade\Project\Robot_Arm\Holtek_MCU\Program\Motor_v1\Motor_v1.c"
 128  0008  3AB7        	snz [55].5
 128  0009  2800     R  	jmp _L17
 129  000A              #line 129 "D:\Wade\Project\Robot_Arm\Holtek_MCU\Program\Motor_v1\Motor_v1.c"
 129  000A  B5AA 0001   	lclr [298].3
 130  000C              #line 130 "D:\Wade\Project\Robot_Arm\Holtek_MCU\Program\Motor_v1\Motor_v1.c"
 130  000C  36B7        	clr [55].5
 130  000D  0003        	ret
 130  000E              _ptm_delay endp
 130  000E              #line 130 "D:\Wade\Project\Robot_Arm\Holtek_MCU\Program\Motor_v1\Motor_v1.c"
 130  000E              #pragma debug scope 1 1
 130  000E              public _motor_callb_p
 130  000E              #pragma debug scope 8 1
 134  000E              #line 134 "D:\Wade\Project\Robot_Arm\Holtek_MCU\Program\Motor_v1\Motor_v1.c"
 134  0000              _motor_callb_p .section 'code'
 134  0000              _motor_callb_p proc
 135  0000              #line 135 "D:\Wade\Project\Robot_Arm\Holtek_MCU\Program\Motor_v1\Motor_v1.c"
 135  0000  369E        	clr [30].5
 136  0001              #line 136 "D:\Wade\Project\Robot_Arm\Holtek_MCU\Program\Motor_v1\Motor_v1.c"
 136  0001  361E        	clr [30].4
 137  0002              #line 137 "D:\Wade\Project\Robot_Arm\Holtek_MCU\Program\Motor_v1\Motor_v1.c"
 137  0002  2800     R  	jmp _L19
 137  0003              _L20:
 139  0003              #line 139 "D:\Wade\Project\Robot_Arm\Holtek_MCU\Program\Motor_v1\Motor_v1.c"
"File: Motor_v1.c    Assembler  Version HGASM0202      Page 6

 139  0003  359E        	clr [30].3
 140  0004              #line 140 "D:\Wade\Project\Robot_Arm\Holtek_MCU\Program\Motor_v1\Motor_v1.c"
 140  0004  0F20        	mov a,32
 140  0005  0080     R  	mov _ptm_delay_2[0],a
 140  0006  0F03        	mov a,3
 140  0007  0080     R  	mov _ptm_delay_2[1],a
 140  0008              	fcall _ptm_delay
 141  000F              #line 141 "D:\Wade\Project\Robot_Arm\Holtek_MCU\Program\Motor_v1\Motor_v1.c"
 141  000F  319E        	set [30].3
 142  0010              #line 142 "D:\Wade\Project\Robot_Arm\Holtek_MCU\Program\Motor_v1\Motor_v1.c"
 142  0010  0F20        	mov a,32
 142  0011  0080     R  	mov _ptm_delay_2[0],a
 142  0012  0F03        	mov a,3
 142  0013  0080     R  	mov _ptm_delay_2[1],a
 142  0014              	fcall _ptm_delay
 142  001B              _L19:
 137  001B              #line 137 "D:\Wade\Project\Robot_Arm\Holtek_MCU\Program\Motor_v1\Motor_v1.c"
 137  001B  3D9B        	sz [27].3
 137  001C  2800     R  	jmp _L20
 137  001D  0003        	ret
 137  001E              _motor_callb_p endp
 137  001E              #line 137 "D:\Wade\Project\Robot_Arm\Holtek_MCU\Program\Motor_v1\Motor_v1.c"
 137  001E              #pragma debug scope 1 1
 137  001E              public _motor_deg_p
 137  001E              #pragma debug scope 9 1
 147  001E              #line 147 "D:\Wade\Project\Robot_Arm\Holtek_MCU\Program\Motor_v1\Motor_v1.c"
 147  0000              _motor_deg_p .section 'code'
 147  0000              _motor_deg_p proc
 147  0000              public _motor_deg_p_2
 147  0000  0007[           local _motor_deg_p_2 db 7 dup(?)	; 4,3
            00
            ]
 147  0007              #pragma debug variable 10 9 _motor_deg_p_2+0 "deg"
 147  0007              #pragma debug variable 12 9 _motor_deg_p_2+2 "time"
 147  0007              #pragma debug variable 10 9 _motor_deg_p_2+4 "j"
 149  0007              #line 149 "D:\Wade\Project\Robot_Arm\Holtek_MCU\Program\Motor_v1\Motor_v1.c"
 149  0000  1F00     R  	clr _motor_deg_p_2[4]
 149  0001  1F00     R  	clr _motor_deg_p_2[5]
 149  0002              _L22:
 149  0002              #line 149 "D:\Wade\Project\Robot_Arm\Holtek_MCU\Program\Motor_v1\Motor_v1.c"
 149  0002  0700     R  	mov a,_motor_deg_p_2[4]
 149  0003  0200     R  	sub a,_motor_deg_p_2[0]
 149  0004  0700     R  	mov a,_motor_deg_p_2[5]
 149  0005  1200     R  	sbc a,_motor_deg_p_2[1]
 149  0006  3F0A        	sz cz
 149  0007  2800     R  	jmp _L21
 149  0008  1F00     R  	clr _motor_deg_p_2[6]
 149  0009              _L25:
 153  0009              #line 153 "D:\Wade\Project\Robot_Arm\Holtek_MCU\Program\Motor_v1\Motor_v1.c"
 153  0009  359E        	clr [30].3
 154  000A              #line 154 "D:\Wade\Project\Robot_Arm\Holtek_MCU\Program\Motor_v1\Motor_v1.c"
 154  000A  0700     R  	mov a,_motor_deg_p_2[2]
 154  000B  0080     R  	mov _ptm_delay_2[0],a
 154  000C  0700     R  	mov a,_motor_deg_p_2[3]
 154  000D  0080     R  	mov _ptm_delay_2[1],a
 154  000E              	fcall _ptm_delay
 155  0015              #line 155 "D:\Wade\Project\Robot_Arm\Holtek_MCU\Program\Motor_v1\Motor_v1.c"
 155  0015  319E        	set [30].3
 156  0016              #line 156 "D:\Wade\Project\Robot_Arm\Holtek_MCU\Program\Motor_v1\Motor_v1.c"
 156  0016  0700     R  	mov a,_motor_deg_p_2[2]
"File: Motor_v1.c    Assembler  Version HGASM0202      Page 7

 156  0017  0080     R  	mov _ptm_delay_2[0],a
 156  0018  0700     R  	mov a,_motor_deg_p_2[3]
 156  0019  0080     R  	mov _ptm_delay_2[1],a
 156  001A              	fcall _ptm_delay
 156  0021  1480     R  	inc _motor_deg_p_2[6]
 151  0022              #line 151 "D:\Wade\Project\Robot_Arm\Holtek_MCU\Program\Motor_v1\Motor_v1.c"
 151  0022  0700     R  	mov a,_motor_deg_p_2[6]
 151  0023  0A09        	sub a,9
 151  0024  390A        	snz z
 151  0025  2800     R  	jmp _L25
 149  0026              #line 149 "D:\Wade\Project\Robot_Arm\Holtek_MCU\Program\Motor_v1\Motor_v1.c"
 149  0026  1480     R  	inc _motor_deg_p_2[4]
 149  0027  3D0A        	sz z
 149  0028  1480     R  	inc _motor_deg_p_2[5]
 149  0029  2800     R  	jmp _L22
 149  002A              _L21:
 149  002A  0003        	ret
 149  002B              _motor_deg_p endp
 149  002B              #line 149 "D:\Wade\Project\Robot_Arm\Holtek_MCU\Program\Motor_v1\Motor_v1.c"
 149  002B              #pragma debug scope 1 1
 149  002B              public _delay
 149  002B              #pragma debug scope 10 1
 162  002B              #line 162 "D:\Wade\Project\Robot_Arm\Holtek_MCU\Program\Motor_v1\Motor_v1.c"
 162  0000              _delay .section 'code'
 162  0000              _delay proc
 162  0000              public _delay_2
 162  0000  0002[           local _delay_2 db 2 dup(?)	; 2,0
            00
            ]
 162  0002              #pragma debug variable 10 10 _delay_2+0 "var"
 164  0002              #line 164 "D:\Wade\Project\Robot_Arm\Holtek_MCU\Program\Motor_v1\Motor_v1.c"
 164  0000  1F00     E  	clr rb
 164  0001  1F00     E  	clr rc
 164  0002              _L27:
 164  0002              #line 164 "D:\Wade\Project\Robot_Arm\Holtek_MCU\Program\Motor_v1\Motor_v1.c"
 164  0002  0700     E  	mov a,rb
 164  0003  0200     R  	sub a,_delay_2[0]
 164  0004  0700     E  	mov a,rc
 164  0005  1200     R  	sbc a,_delay_2[1]
 164  0006  3F0A        	sz cz
 164  0007  2800     R  	jmp _L26
 164  0008  1F00     E  	clr ra
 164  0009              _L30:
 166  0009              #line 166 "D:\Wade\Project\Robot_Arm\Holtek_MCU\Program\Motor_v1\Motor_v1.c"
 166  0009              ;# 166 "D:\Wade\Project\Robot_Arm\Holtek_MCU\Program\Motor_v1\Motor_v1.c" 1
 166  0009  0000        	nop
 166  000A  1480     E  	inc ra
 165  000B              #line 165 "D:\Wade\Project\Robot_Arm\Holtek_MCU\Program\Motor_v1\Motor_v1.c"
 165  000B  0700     E  	mov a,ra
 165  000C  0A19        	sub a,25
 165  000D  390A        	snz z
 165  000E  2800     R  	jmp _L30
 164  000F              #line 164 "D:\Wade\Project\Robot_Arm\Holtek_MCU\Program\Motor_v1\Motor_v1.c"
 164  000F  1480     E  	inc rb
 164  0010  3D0A        	sz z
 164  0011  1480     E  	inc rc
 164  0012  2800     R  	jmp _L27
 164  0013              _L26:
 164  0013  0003        	ret
 164  0014              _delay endp
"File: Motor_v1.c    Assembler  Version HGASM0202      Page 8

 164  0014              #line 164 "D:\Wade\Project\Robot_Arm\Holtek_MCU\Program\Motor_v1\Motor_v1.c"
 164  0014              #pragma debug scope 1 1
 164  0014              ___wdtc equ [62]
 164  0014              ___pdc equ [31]
 164  0014              ___pcc equ [28]
 164  0014              ___pcpu equ [29]
 164  0014              public _main
 164  0014              #pragma debug scope 11 1
  29  0014              #line 29 "D:\Wade\Project\Robot_Arm\Holtek_MCU\Program\Motor_v1\Motor_v1.c"
  29  0014              IFDEF WITH_DEFAULT_STARTUP
  29  0014              extern _main_initial0:near
  29  0014              extern _main_startup:near
  29  0014              ENDIF
  29  0014              
  29  0014              ROMBANK 0 @start
  29  0000              @start .section com_l 'code'
  29  0000              _main_startup1:
  29  0000              @start .section com_e 'code'
  29  0000  0F00     R  	mov a,bank _main
  29  0001  008B        	mov bp,a
  29  0002  2800     R  	jmp _main
  29  0003              
  29  0000              _main .section 'code'
  29  0000              _main proc
  30  0000              #line 30 "D:\Wade\Project\Robot_Arm\Holtek_MCU\Program\Motor_v1\Motor_v1.c"
  30  0000  0FAB        	mov a,171
  30  0001  00BE        	mov [62],a
  31  0002              #line 31 "D:\Wade\Project\Robot_Arm\Holtek_MCU\Program\Motor_v1\Motor_v1.c"
  31  0002              	fcall _ptm_setup
  34  0009              #line 34 "D:\Wade\Project\Robot_Arm\Holtek_MCU\Program\Motor_v1\Motor_v1.c"
  34  0009  361F        	clr [31].4
  35  000A              #line 35 "D:\Wade\Project\Robot_Arm\Holtek_MCU\Program\Motor_v1\Motor_v1.c"
  35  000A  369F        	clr [31].5
  36  000B              #line 36 "D:\Wade\Project\Robot_Arm\Holtek_MCU\Program\Motor_v1\Motor_v1.c"
  36  000B  361C        	clr [28].4
  37  000C              #line 37 "D:\Wade\Project\Robot_Arm\Holtek_MCU\Program\Motor_v1\Motor_v1.c"
  37  000C  359F        	clr [31].3
  38  000D              #line 38 "D:\Wade\Project\Robot_Arm\Holtek_MCU\Program\Motor_v1\Motor_v1.c"
  38  000D  319C        	set [28].3
  39  000E              #line 39 "D:\Wade\Project\Robot_Arm\Holtek_MCU\Program\Motor_v1\Motor_v1.c"
  39  000E  319D        	set [29].3
  41  000F              #line 41 "D:\Wade\Project\Robot_Arm\Holtek_MCU\Program\Motor_v1\Motor_v1.c"
  41  000F  369E        	clr [30].5
  41  0010              _L32:
  44  0010              #line 44 "D:\Wade\Project\Robot_Arm\Holtek_MCU\Program\Motor_v1\Motor_v1.c"
  44  0010  321E        	set [30].4
  45  0011              #line 45 "D:\Wade\Project\Robot_Arm\Holtek_MCU\Program\Motor_v1\Motor_v1.c"
  45  0011  361B        	clr [27].4
  46  0012              #line 46 "D:\Wade\Project\Robot_Arm\Holtek_MCU\Program\Motor_v1\Motor_v1.c"
  46  0012  0FC8        	mov a,-56
  46  0013  0080     R  	mov _motor_deg_p_2[2],a
  46  0014  1F00     R  	clr _motor_deg_p_2[3]
  46  0015  0FF4        	mov a,-12
  46  0016  0080     R  	mov _motor_deg_p_2[0],a
  46  0017  0F01        	mov a,1
  46  0018  0080     R  	mov _motor_deg_p_2[1],a
  46  0019              	fcall _motor_deg_p
  49  0020              #line 49 "D:\Wade\Project\Robot_Arm\Holtek_MCU\Program\Motor_v1\Motor_v1.c"
  49  0020  321B        	set [27].4
  50  0021              #line 50 "D:\Wade\Project\Robot_Arm\Holtek_MCU\Program\Motor_v1\Motor_v1.c"
"File: Motor_v1.c    Assembler  Version HGASM0202      Page 9

  50  0021  361E        	clr [30].4
  51  0022              #line 51 "D:\Wade\Project\Robot_Arm\Holtek_MCU\Program\Motor_v1\Motor_v1.c"
  51  0022  0F10        	mov a,16
  51  0023  0080     R  	mov _delay_2[0],a
  51  0024  0F27        	mov a,39
  51  0025  0080     R  	mov _delay_2[1],a
  51  0026              	fcall _delay
  52  002D              #line 52 "D:\Wade\Project\Robot_Arm\Holtek_MCU\Program\Motor_v1\Motor_v1.c"
  52  002D  0FC8        	mov a,-56
  52  002E  0080     R  	mov _motor_deg_p_2[2],a
  52  002F  1F00     R  	clr _motor_deg_p_2[3]
  52  0030  0FF4        	mov a,-12
  52  0031  0080     R  	mov _motor_deg_p_2[0],a
  52  0032  0F01        	mov a,1
  52  0033  0080     R  	mov _motor_deg_p_2[1],a
  52  0034              	fcall _motor_deg_p
  60  003B              #line 60 "D:\Wade\Project\Robot_Arm\Holtek_MCU\Program\Motor_v1\Motor_v1.c"
  60  003B  0F10        	mov a,16
  60  003C  0080     R  	mov _delay_2[0],a
  60  003D  0F27        	mov a,39
  60  003E  0080     R  	mov _delay_2[1],a
  60  003F              	fcall _delay
  60  0046  2800     R  	jmp _L32
  60  0047  2800     R  	jmp $
  60  0048              _main endp
  60  0048              
  60  0048              @dummy endp
  60  0048              
  60  0048              #line 60 "D:\Wade\Project\Robot_Arm\Holtek_MCU\Program\Motor_v1\Motor_v1.c"
  60  0048              #pragma debug scope 1 1
  60  0048              #pragma debug struct_end
  60  0048              #pragma debug struct_end
  60  0048              #pragma debug union_end
  60  0048              #pragma debug union_end
  60  0048              #pragma debug variable 43 1 ___intc0 "__intc0" 1
  60  0048              #pragma debug struct_end
  60  0048              #pragma debug struct_end
  60  0048              #pragma debug union_end
  60  0048              #pragma debug union_end
  60  0048              #pragma debug variable 45 1 ___intc1 "__intc1" 1
  60  0048              #pragma debug struct_end
  60  0048              #pragma debug struct_end
  60  0048              #pragma debug union_end
  60  0048              #pragma debug union_end
  60  0048              #pragma debug variable 47 1 ___intc3 "__intc3" 1
  60  0048              #pragma debug struct_end
  60  0048              #pragma debug struct_end
  60  0048              #pragma debug union_end
  60  0048              #pragma debug union_end
  60  0048              #pragma debug variable 49 1 ___pc "__pc" 1
  60  0048              #pragma debug struct_end
  60  0048              #pragma debug struct_end
  60  0048              #pragma debug union_end
  60  0048              #pragma debug union_end
  60  0048              #pragma debug variable 51 1 ___pcc "__pcc" 1
  60  0048              #pragma debug struct_end
  60  0048              #pragma debug struct_end
  60  0048              #pragma debug union_end
  60  0048              #pragma debug union_end
  60  0048              #pragma debug variable 53 1 ___pcpu "__pcpu" 1
"File: Motor_v1.c    Assembler  Version HGASM0202      Page 10

  60  0048              #pragma debug struct_end
  60  0048              #pragma debug struct_end
  60  0048              #pragma debug union_end
  60  0048              #pragma debug union_end
  60  0048              #pragma debug variable 55 1 ___pd "__pd" 1
  60  0048              #pragma debug struct_end
  60  0048              #pragma debug struct_end
  60  0048              #pragma debug union_end
  60  0048              #pragma debug union_end
  60  0048              #pragma debug variable 57 1 ___pdc "__pdc" 1
  60  0048              #pragma debug struct_end
  60  0048              #pragma debug struct_end
  60  0048              #pragma debug union_end
  60  0048              #pragma debug union_end
  60  0048              #pragma debug variable 59 1 ___mfi0 "__mfi0" 1
  60  0048              #pragma debug struct_end
  60  0048              #pragma debug struct_end
  60  0048              #pragma debug union_end
  60  0048              #pragma debug union_end
  60  0048              #pragma debug variable 61 1 ___mfi4 "__mfi4" 1
  60  0048              #pragma debug struct_end
  60  0048              #pragma debug struct_end
  60  0048              #pragma debug union_end
  60  0048              #pragma debug union_end
  60  0048              #pragma debug variable 63 1 ___wdtc "__wdtc" 1
  60  0048              #pragma debug struct_end
  60  0048              #pragma debug struct_end
  60  0048              #pragma debug union_end
  60  0048              #pragma debug union_end
  60  0048              #pragma debug variable 65 1 ___stm0c0 "__stm0c0" 1
  60  0048              #pragma debug struct_end
  60  0048              #pragma debug struct_end
  60  0048              #pragma debug union_end
  60  0048              #pragma debug union_end
  60  0048              #pragma debug variable 67 1 ___stm0c1 "__stm0c1" 1
  60  0048              #pragma debug variable 8 1 ___stm0al "__stm0al" 1
  60  0048              #pragma debug variable 8 1 ___stm0ah "__stm0ah" 1
  60  0048              #pragma debug struct_end
  60  0048              #pragma debug struct_end
  60  0048              #pragma debug union_end
  60  0048              #pragma debug union_end
  60  0048              #pragma debug variable 69 1 ___ptm3c0 "__ptm3c0" 1
  60  0048              #pragma debug struct_end
  60  0048              #pragma debug struct_end
  60  0048              #pragma debug union_end
  60  0048              #pragma debug union_end
  60  0048              #pragma debug variable 71 1 ___ptm3c1 "__ptm3c1" 1
  60  0048              #pragma debug variable 8 1 ___ptm3al "__ptm3al" 1
  60  0048              #pragma debug variable 8 1 ___ptm3ah "__ptm3ah" 1
  29  0048              #line 29 "D:\Wade\Project\Robot_Arm\Holtek_MCU\Program\Motor_v1\Motor_v1.c"
  29  0000              @code .section at 0 'code'
  29  0000  1F0B        	clr bp
  29  0001  2800     R  	jmp _main_startup1
  29  0002              
  29  0002              
  29  0002              ; 
  29  0002              ; Generated by holtek-gcc v3.19, Mon Dec 20 21:31:32 2021
  29  0002              ; Rebuild 718
  29  0002              ; end of file

"File: Motor_v1.c    Assembler  Version HGASM0202      Page 11


        0 Errors, 0