"File: Bluetooth_Baud_Rate_v1.c  Assembler  Version HGASM0202      Page 1


   1  0000              ; Generated by holtek-gcc v3.19, Wed Oct 13 14:04:30 2021
   2  0000              ; 
   3  0000              ; Configuration:
   4  0000              ;       with long instruction
   5  0000              ;       Multi-ROM, Multi-RAM
   6  0000              ;       bits_per_rom_unit:16
   7  0000              ;       with mp1
   8  0000              ;       with tbhp, address(0x9)
   9  0000              ;          Use tabrd-const
  10  0000              ;       
  11  0000              ; SFR address of long-instruction arch:
  12  0000              ;    mp0 = -1,1,0
  13  0000              ;    mp1 = 4,3,2
  14  0000              ;    mp2 = 14,13,12
  15  0000              ;    tbp = 9,7,8
  16  0000              ;    acc = 5
  17  0000              ;    pcl = 6
  18  0000              ;    status = 10
  19  0000              ;    bp = 11
  20  0000              ;    intc = 16
  21  0000              ;       
  22  0000              ;       
  23  0000              ; use 'tabrdc' instead of 'tabrd'
  24  0000              ;       
  25  0000              
  26  0000              #pragma translator "holtek-gcc 4.6.4" "3.19" "build 20130711"
  27  0000              ; Rebuild 718
  28  0000              
  29  0000              ir equ [2]
  30  0000              mp equ [3]
  31  0000              sbp equ [4]
  32  0000              acc equ [5]
  33  0000              bp equ [11]
  34  0000              tblp equ [7]
  35  0000              tbhp equ [9]
  36  0000              status equ [10]
  37  0000              c equ [10].0
  38  0000              ac equ [10].1
  39  0000              z equ [10].2
  40  0000              ov equ [10].3
  41  0000              cz equ [10].6
  42  0000              sc equ [10].7
  43  0000              intc equ [16]
  44  0000              mduwr0 equ [59h]
  45  0000              mduwr1 equ [5ah]
  46  0000              mduwr2 equ [5bh]
  47  0000              mduwr3 equ [5ch]
  48  0000              mduwr4 equ [5dh]
  49  0000              mduwr5 equ [5eh]
  50  0000              mduwrctrl equ [5fh]
  51  0000              
  52  0000              extern ra:byte
  53  0000              extern rb:byte
  54  0000              extern rc:byte
  55  0000              extern rd:byte
  56  0000              extern re:byte
  57  0000              extern rf:byte
  58  0000              extern rg:byte
  59  0000              extern rh:byte
"File: Bluetooth_Baud_Rate_v1.ASM  Assembler  Version HGASM0202      Page 2

  60  0000              extern _Crom2Prom:near
  61  0000              extern _Crom2PromNext:near
  62  0000              
  63  0000              RAMBANK 0 @BITDATASEC, @BITDATASEC1
  64  0000              @HCCINIT	.section 'data'
  65  0000              @HCCINIT0	.section 'data'
  66  0000              @BITDATASEC	 .section 'data'
  67  0000              @BITDATASEC1	 .section 'data'
  68  0000              
  69  0000              #pragma debug scope 1 1
  70  0000              	extern __DELAY3:near
  71  0000              	extern __DELAYX3:near
  72  0000              	extern __DELAYX6:near
  73  0000              	extern __DELAYY5:near
  74  0000              	extern __DELAYY3:near
  75  0000              	extern _builtin_holtek_delay_2:byte
  76  0000              ___pas1 equ [334]
  77  0000              ___u0cr1 equ [273]
  78  0000              ___u0cr2 equ [274]
  79  0000              ___brg0 equ [276]
  80  0000              ___mfi5 equ [56]
  81  0000              ___intc3 equ [19]
  82  0000              ___intc0 equ [16]
  83  0000              public _UART_Setup
  84  0000              #pragma debug scope 2 1

  76  0000              #line 76 "D:\Wade\Project\Robot_Arm\Holtek MCU\Program\Bluetooth_Baud_Rate_v1\Bluetooth_Baud_Rate_v1.c"
  76  0000              _UART_Setup .section 'code'
  76  0000              _UART_Setup proc
  77  0000              #line 77 "D:\Wade\Project\Robot_Arm\Holtek MCU\Program\Bluetooth_Baud_Rate_v1\Bluetooth_Baud_Rate_v1.c"
  77  0000  0FF0        	mov a,240
  77  0001  80CE 0001   	lmov [334],a
  78  0003              #line 78 "D:\Wade\Project\Robot_Arm\Holtek MCU\Program\Bluetooth_Baud_Rate_v1\Bluetooth_Baud_Rate_v1.c"
  78  0003  0F80        	mov a,128
  78  0004  8091 0001   	lmov [273],a
  79  0006              #line 79 "D:\Wade\Project\Robot_Arm\Holtek MCU\Program\Bluetooth_Baud_Rate_v1\Bluetooth_Baud_Rate_v1.c"
  79  0006  0FC4        	mov a,196
  79  0007  8092 0001   	lmov [274],a
  80  0009              #line 80 "D:\Wade\Project\Robot_Arm\Holtek MCU\Program\Bluetooth_Baud_Rate_v1\Bluetooth_Baud_Rate_v1.c"
  80  0009  0F0C        	mov a,12
  80  000A  8094 0001   	lmov [276],a
  81  000C              #line 81 "D:\Wade\Project\Robot_Arm\Holtek MCU\Program\Bluetooth_Baud_Rate_v1\Bluetooth_Baud_Rate_v1.c"
  81  000C  3038        	set [56].0
  82  000D              #line 82 "D:\Wade\Project\Robot_Arm\Holtek MCU\Program\Bluetooth_Baud_Rate_v1\Bluetooth_Baud_Rate_v1.c"
  82  000D  3638        	clr [56].4
  83  000E              #line 83 "D:\Wade\Project\Robot_Arm\Holtek MCU\Program\Bluetooth_Baud_Rate_v1\Bluetooth_Baud_Rate_v1.c"
  83  000E  3193        	set [19].3
  84  000F              #line 84 "D:\Wade\Project\Robot_Arm\Holtek MCU\Program\Bluetooth_Baud_Rate_v1\Bluetooth_Baud_Rate_v1.c"
  84  000F  3010        	set [16].0
  84  0010  0003        	ret
  84  0011              _UART_Setup endp
  84  0011              #line 84 "D:\Wade\Project\Robot_Arm\Holtek MCU\Program\Bluetooth_Baud_Rate_v1\Bluetooth_Baud_Rate_v1.c"
  84  0011              #pragma debug scope 1 1
  84  0011              ___u0sr equ [272]
  84  0011              ___txr_rxr0 equ [275]
  84  0011              public _Read_Data
  84  0011              #pragma debug scope 3 1
  88  0011              #line 88 "D:\Wade\Project\Robot_Arm\Holtek MCU\Program\Bluetooth_Baud_Rate_v1\Bluetooth_Baud_Rate_v1.c"
  88  0000              _Read_Data .section 'code'
  88  0000              _Read_Data proc
"File: Bluetooth_Baud_Rate_v1.c  Assembler  Version HGASM0202      Page 3

  88  0000              _L4:
  89  0000              #line 89 "D:\Wade\Project\Robot_Arm\Holtek MCU\Program\Bluetooth_Baud_Rate_v1\Bluetooth_Baud_Rate_v1.c"
  89  0000  B990 0001   	lsnz [272].3
  89  0002  2800     R  	jmp _L4
  90  0003              #line 90 "D:\Wade\Project\Robot_Arm\Holtek MCU\Program\Bluetooth_Baud_Rate_v1\Bluetooth_Baud_Rate_v1.c"
  90  0003  0700     R  	mov a,_kn[0]
  90  0004  0080     E  	mov rb,a
  90  0005  0700     R  	mov a,_kn[1]
  90  0006  0080     E  	mov rc,a
  90  0007  8713 0001   	lmov a,[275]
  90  0009  0080     E  	mov ra,a
  90  000A  0F00     R  	mov a,low offset _R_Data
  90  000B  0300     E  	add a,rb
  90  000C  0083        	mov mp,a
  90  000D  0F00     R  	mov a,high offset _R_Data
  90  000E  1300     E  	adc a,rc
  90  000F  0084        	mov sbp,a
  90  0010  0700     E  	mov a,ra
  90  0011  0082        	mov ir,a
  91  0012              #line 91 "D:\Wade\Project\Robot_Arm\Holtek MCU\Program\Bluetooth_Baud_Rate_v1\Bluetooth_Baud_Rate_v1.c"
  91  0012  0700     E  	mov a,ra
  91  0013  0A2F        	sub a,47
  91  0014  3D0A        	sz z
  91  0015  2800     R  	jmp _L5
  91  0016  0F09        	mov a,9
  91  0017  0200     E  	sub a,rb
  91  0018  0F00        	mov a,0
  91  0019  1200     E  	sbc a,rc
  91  001A  3C0A        	sz c
  91  001B  2800     R  	jmp _L6
  91  001C              _L5:
  91  001C              #pragma debug scope 4 3
  91  001C              ;begin block, line: 91.-1
  93  001C              #line 93 "D:\Wade\Project\Robot_Arm\Holtek MCU\Program\Bluetooth_Baud_Rate_v1\Bluetooth_Baud_Rate_v1.c"
  93  001C  1F00     R  	clr _kn[0]
  93  001D  1F00     R  	clr _kn[1]
  95  001E              #line 95 "D:\Wade\Project\Robot_Arm\Holtek MCU\Program\Bluetooth_Baud_Rate_v1\Bluetooth_Baud_Rate_v1.c"
  95  001E  1F00     E  	clr rb
  95  001F  1F00     E  	clr rc
  95  0020              _L8:
  96  0020              #line 96 "D:\Wade\Project\Robot_Arm\Holtek MCU\Program\Bluetooth_Baud_Rate_v1\Bluetooth_Baud_Rate_v1.c"
  96  0020  0F00     R  	mov a,low offset _R_Data
  96  0021  0300     E  	add a,rb
  96  0022  0083        	mov mp,a
  96  0023  0F00     R  	mov a,high offset _R_Data
  96  0024  1300     E  	adc a,rc
  96  0025  0084        	mov sbp,a
  96  0026              	fcall _Crom2Prom
  96  002D  0080     E  	mov ra,a
  96  002E  0F00     R  	mov a,low offset _Data
  96  002F  0300     E  	add a,rb
  96  0030  0083        	mov mp,a
  96  0031  0F00     R  	mov a,high offset _Data
  96  0032  1300     E  	adc a,rc
  96  0033  0084        	mov sbp,a
  96  0034  0700     E  	mov a,ra
  96  0035  0082        	mov ir,a
  95  0036              #line 95 "D:\Wade\Project\Robot_Arm\Holtek MCU\Program\Bluetooth_Baud_Rate_v1\Bluetooth_Baud_Rate_v1.c"
  95  0036  1480     E  	inc rb
  95  0037  3D0A        	sz z
"File: Bluetooth_Baud_Rate_v1.c  Assembler  Version HGASM0202      Page 4

  95  0038  1480     E  	inc rc
  95  0039  0700     E  	mov a,rb
  95  003A  0C0A        	xor a,10
  95  003B  0500     E  	or a,rc
  95  003C  390A        	snz z
  95  003D  2800     R  	jmp _L8
  95  003E  2800     R  	jmp _L2
  95  003F              _L6:
  95  003F              #pragma debug scope 3 1
  98  003F              #line 98 "D:\Wade\Project\Robot_Arm\Holtek MCU\Program\Bluetooth_Baud_Rate_v1\Bluetooth_Baud_Rate_v1.c"
  98  003F  0F01        	mov a,1
  98  0040  0300     E  	add a,rb
  98  0041  0080     R  	mov _kn[0],a
  98  0042  0F00        	mov a,0
  98  0043  1300     E  	adc a,rc
  98  0044  0080     R  	mov _kn[1],a
  98  0045              _L2:
  98  0045  0003        	ret
  98  0046              _Read_Data endp
  98  0046              #line 98 "D:\Wade\Project\Robot_Arm\Holtek MCU\Program\Bluetooth_Baud_Rate_v1\Bluetooth_Baud_Rate_v1.c"
  98  0046              #pragma debug scope 1 1
  98  0046              ___pc equ [27]
  98  0046              public _Uart_R
  98  0046              #pragma debug scope 5 1
  68  0046              #line 68 "D:\Wade\Project\Robot_Arm\Holtek MCU\Program\Bluetooth_Baud_Rate_v1\Bluetooth_Baud_Rate_v1.c"
  68  0046              rombank 0 @Uart_R_code
  68  0000              @Uart_R_code .section at 60 'code'
  68  0000  0080     E  	mov r1,a
  68  0001  070B        	mov a,bp
  68  0002  1F0B        	clr bp
  68  0003  2800     R  	jmp _Uart_R
  68  0004              ROMBANK 0 _Uart_R
  68  0004              #pragma debug scope 1 1
  68  0004              @dummy60 endp
  68  0004              #pragma debug scope 6 1
  68  0000              _Uart_R .section 'code'
  68  0000              _Uart_R proc
  68  0000  0080     E  	mov r2,a
  68  0001  070A        	mov a, status
  68  0002  0080     E  	mov r3,a
  68  0003  0703        	mov a,mp
  68  0004  0080     E  	mov r4,a
  68  0005  0704        	mov a,sbp
  68  0006  0080     E  	mov r5,a
  68  0007  0707        	mov a,tblp
  68  0008  0080     E  	mov r6,a
  68  0009  0709        	mov a,tbhp
  68  000A  0080     E  	mov r7,a
  69  000B              #line 69 "D:\Wade\Project\Robot_Arm\Holtek MCU\Program\Bluetooth_Baud_Rate_v1\Bluetooth_Baud_Rate_v1.c"
  69  000B  349B        	clr [27].1
  70  000C              #line 70 "D:\Wade\Project\Robot_Arm\Holtek MCU\Program\Bluetooth_Baud_Rate_v1\Bluetooth_Baud_Rate_v1.c"
  70  000C              	fcall _Read_Data
  71  0013              #line 71 "D:\Wade\Project\Robot_Arm\Holtek MCU\Program\Bluetooth_Baud_Rate_v1\Bluetooth_Baud_Rate_v1.c"
  71  0013  3638        	clr [56].4
  72  0014              #line 72 "D:\Wade\Project\Robot_Arm\Holtek MCU\Program\Bluetooth_Baud_Rate_v1\Bluetooth_Baud_Rate_v1.c"
  72  0014  309B        	set [27].1
  72  0015  0700     E  	mov a,r2
  72  0016  008B        	mov bp,a
  72  0017  0700     E  	mov a,r3
  72  0018  008A        	mov status,a
"File: Bluetooth_Baud_Rate_v1.c  Assembler  Version HGASM0202      Page 5

  72  0019  0700     E  	mov a,r4
  72  001A  0083        	mov mp,a
  72  001B  0700     E  	mov a,r5
  72  001C  0084        	mov sbp,a
  72  001D  0700     E  	mov a,r6
  72  001E  0087        	mov tblp,a
  72  001F  0700     E  	mov a,r7
  72  0020  0089        	mov tbhp,a
  72  0021  1D05        	tabrdc acc
  72  0022  0700     E  	mov a,r1
  72  0023  0004        	reti
  72  0024              _Uart_R endp
  72  0024              
  72  0024              #line 72 "D:\Wade\Project\Robot_Arm\Holtek MCU\Program\Bluetooth_Baud_Rate_v1\Bluetooth_Baud_Rate_v1.c"
  72  0024              #pragma debug scope 1 1
  72  0024              public _Send_Data
  72  0024              #pragma debug scope 7 1
 102  0024              #line 102 "D:\Wade\Project\Robot_Arm\Holtek MCU\Program\Bluetooth_Baud_Rate_v1\Bluetooth_Baud_Rate_v1.c"
 102  0000              _Send_Data .section 'code'
 102  0000              _Send_Data proc
 102  0000              public _Send_Data_2
 102  0000  0002[           local _Send_Data_2 db 2 dup(?)	; 2,0
            00
            ]
 102  0002              #pragma debug variable 10 7 _Send_Data_2+0 "T_Data"
 103  0002              #line 103 "D:\Wade\Project\Robot_Arm\Holtek MCU\Program\Bluetooth_Baud_Rate_v1\Bluetooth_Baud_Rate_v1.c"
 103  0000  0700     R  	mov a,_Send_Data_2[0]
 103  0001  8093 0001   	lmov [275],a
 103  0003              _L19:
 104  0003              #line 104 "D:\Wade\Project\Robot_Arm\Holtek MCU\Program\Bluetooth_Baud_Rate_v1\Bluetooth_Baud_Rate_v1.c"
 104  0003  B890 0001   	lsnz [272].1
 104  0005  2800     R  	jmp _L19
 105  0006              #line 105 "D:\Wade\Project\Robot_Arm\Holtek MCU\Program\Bluetooth_Baud_Rate_v1\Bluetooth_Baud_Rate_v1.c"
 105  0006  3638        	clr [56].4
 105  0007  0003        	ret
 105  0008              _Send_Data endp
 105  0008              #line 105 "D:\Wade\Project\Robot_Arm\Holtek MCU\Program\Bluetooth_Baud_Rate_v1\Bluetooth_Baud_Rate_v1.c"
 105  0008              #pragma debug scope 1 1
 105  0008              public _delay
 105  0008              #pragma debug scope 8 1
 132  0008              #line 132 "D:\Wade\Project\Robot_Arm\Holtek MCU\Program\Bluetooth_Baud_Rate_v1\Bluetooth_Baud_Rate_v1.c"
 132  0000              _delay .section 'code'
 132  0000              _delay proc
 132  0000              public _delay_2
 132  0000  0002[           local _delay_2 db 2 dup(?)	; 2,0
            00
            ]
 132  0002              #pragma debug variable 10 8 _delay_2+0 "var"
 134  0002              #line 134 "D:\Wade\Project\Robot_Arm\Holtek MCU\Program\Bluetooth_Baud_Rate_v1\Bluetooth_Baud_Rate_v1.c"
 134  0000  1F00     E  	clr rb
 134  0001  1F00     E  	clr rc
 134  0002              _L21:
 134  0002              #line 134 "D:\Wade\Project\Robot_Arm\Holtek MCU\Program\Bluetooth_Baud_Rate_v1\Bluetooth_Baud_Rate_v1.c"
 134  0002  0700     E  	mov a,rb
 134  0003  0200     R  	sub a,_delay_2[0]
 134  0004  0700     E  	mov a,rc
 134  0005  1200     R  	sbc a,_delay_2[1]
 134  0006  3F0A        	sz cz
 134  0007  2800     R  	jmp _L20
 134  0008  1F00     E  	clr ra
"File: Bluetooth_Baud_Rate_v1.c  Assembler  Version HGASM0202      Page 6

 134  0009              _L24:
 136  0009              #line 136 "D:\Wade\Project\Robot_Arm\Holtek MCU\Program\Bluetooth_Baud_Rate_v1\Bluetooth_Baud_Rate_v1.c"
 136  0009              ;# 136 "D:\Wade\Project\Robot_Arm\Holtek MCU\Program\Bluetooth_Baud_Rate_v1\Bluetooth_Baud_Rate_v1.c" 1
 136  0009  0000        	nop
 136  000A  1480     E  	inc ra
 135  000B              #line 135 "D:\Wade\Project\Robot_Arm\Holtek MCU\Program\Bluetooth_Baud_Rate_v1\Bluetooth_Baud_Rate_v1.c"
 135  000B  0700     E  	mov a,ra
 135  000C  0A19        	sub a,25
 135  000D  390A        	snz z
 135  000E  2800     R  	jmp _L24
 134  000F              #line 134 "D:\Wade\Project\Robot_Arm\Holtek MCU\Program\Bluetooth_Baud_Rate_v1\Bluetooth_Baud_Rate_v1.c"
 134  000F  1480     E  	inc rb
 134  0010  3D0A        	sz z
 134  0011  1480     E  	inc rc
 134  0012  2800     R  	jmp _L21
 134  0013              _L20:
 134  0013  0003        	ret
 134  0014              _delay endp
 134  0014              #line 134 "D:\Wade\Project\Robot_Arm\Holtek MCU\Program\Bluetooth_Baud_Rate_v1\Bluetooth_Baud_Rate_v1.c"
 134  0014              #pragma debug scope 1 1
 134  0014              ___wdtc equ [62]
 134  0014              ___scc equ [58]
 134  0014              ___hircc equ [59]
 134  0014              ___pcc equ [28]
 134  0014              ___pgc equ [40]
 134  0014              ___pfc equ [37]
 134  0014              public _main
 134  0014              #pragma debug scope 9 1
  34  0014              #line 34 "D:\Wade\Project\Robot_Arm\Holtek MCU\Program\Bluetooth_Baud_Rate_v1\Bluetooth_Baud_Rate_v1.c"
  34  0014              IFDEF WITH_DEFAULT_STARTUP
  34  0014              extern _main_initial0:near
  34  0014              extern _main_startup:near
  34  0014              ENDIF
  34  0014              
  34  0014              ROMBANK 0 @start
  34  0000              @start .section com_l 'code'
  34  0000              _main_startup1:
  34  0000              @start .section com_e 'code'
  34  0000  0F00     R  	mov a,bank _main
  34  0001  008B        	mov bp,a
  34  0002  2800     R  	jmp _main
  34  0003              
  34  0000              _main .section 'code'
  34  0000              _main proc
  34  0000  00              local _main_2 db 1 dup(?)
  35  0001              #line 35 "D:\Wade\Project\Robot_Arm\Holtek MCU\Program\Bluetooth_Baud_Rate_v1\Bluetooth_Baud_Rate_v1.c"
  35  0000  0FAB        	mov a,171
  35  0001  00BE        	mov [62],a
  36  0002              #line 36 "D:\Wade\Project\Robot_Arm\Holtek MCU\Program\Bluetooth_Baud_Rate_v1\Bluetooth_Baud_Rate_v1.c"
  36  0002  0F01        	mov a,1
  36  0003  00BA        	mov [58],a
  37  0004              #line 37 "D:\Wade\Project\Robot_Arm\Holtek MCU\Program\Bluetooth_Baud_Rate_v1\Bluetooth_Baud_Rate_v1.c"
  37  0004  0F03        	mov a,3
  37  0005  00BB        	mov [59],a
  39  0006              #line 39 "D:\Wade\Project\Robot_Arm\Holtek MCU\Program\Bluetooth_Baud_Rate_v1\Bluetooth_Baud_Rate_v1.c"
  39  0006              	fcall _UART_Setup
  42  000D              #line 42 "D:\Wade\Project\Robot_Arm\Holtek MCU\Program\Bluetooth_Baud_Rate_v1\Bluetooth_Baud_Rate_v1.c"
  42  000D  1F00     E  	clr rb
  42  000E  1F00     E  	clr rc
  42  000F              _L27:
"File: Bluetooth_Baud_Rate_v1.c  Assembler  Version HGASM0202      Page 7

  43  000F              #line 43 "D:\Wade\Project\Robot_Arm\Holtek MCU\Program\Bluetooth_Baud_Rate_v1\Bluetooth_Baud_Rate_v1.c"
  43  000F  0F00     R  	mov a,low offset _R_Data
  43  0010  0300     E  	add a,rb
  43  0011  0083        	mov mp,a
  43  0012  0F00     R  	mov a,high offset _R_Data
  43  0013  1300     E  	adc a,rc
  43  0014  0084        	mov sbp,a
  43  0015  0F20        	mov a,32
  43  0016  0082        	mov ir,a
  42  0017              #line 42 "D:\Wade\Project\Robot_Arm\Holtek MCU\Program\Bluetooth_Baud_Rate_v1\Bluetooth_Baud_Rate_v1.c"
  42  0017  1480     E  	inc rb
  42  0018  3D0A        	sz z
  42  0019  1480     E  	inc rc
  42  001A  0700     E  	mov a,rb
  42  001B  0C0A        	xor a,10
  42  001C  0500     E  	or a,rc
  42  001D  390A        	snz z
  42  001E  2800     R  	jmp _L27
  45  001F              #line 45 "D:\Wade\Project\Robot_Arm\Holtek MCU\Program\Bluetooth_Baud_Rate_v1\Bluetooth_Baud_Rate_v1.c"
  45  001F  341C        	clr [28].0
  46  0020              #line 46 "D:\Wade\Project\Robot_Arm\Holtek MCU\Program\Bluetooth_Baud_Rate_v1\Bluetooth_Baud_Rate_v1.c"
  46  0020  349C        	clr [28].1
  47  0021              #line 47 "D:\Wade\Project\Robot_Arm\Holtek MCU\Program\Bluetooth_Baud_Rate_v1\Bluetooth_Baud_Rate_v1.c"
  47  0021  1F28        	clr [40]
  48  0022              #line 48 "D:\Wade\Project\Robot_Arm\Holtek MCU\Program\Bluetooth_Baud_Rate_v1\Bluetooth_Baud_Rate_v1.c"
  48  0022  0FF0        	mov a,240
  48  0023  06A5        	andm a,[37]
  48  0024              _L28:
  54  0024              #line 54 "D:\Wade\Project\Robot_Arm\Holtek MCU\Program\Bluetooth_Baud_Rate_v1\Bluetooth_Baud_Rate_v1.c"
  54  0024  0700     R  	mov a,_R_Data[0]
  54  0025  0080     R  	mov _main_2[0],a
  54  0026  0700     R  	mov a,_main_2[0]
  54  0027  0A41        	sub a,65
  54  0028  390A        	snz z
  54  0029  2800     R  	jmp _L29
  56  002A              #line 56 "D:\Wade\Project\Robot_Arm\Holtek MCU\Program\Bluetooth_Baud_Rate_v1\Bluetooth_Baud_Rate_v1.c"
  56  002A  341B        	clr [27].0
  56  002B  2800     R  	jmp _L31
  56  002C              _L29:
  59  002C              #line 59 "D:\Wade\Project\Robot_Arm\Holtek MCU\Program\Bluetooth_Baud_Rate_v1\Bluetooth_Baud_Rate_v1.c"
  59  002C  0700     R  	mov a,_main_2[0]
  59  002D  0A43        	sub a,67
  59  002E  390A        	snz z
  59  002F  2800     R  	jmp _L28
  61  0030              #line 61 "D:\Wade\Project\Robot_Arm\Holtek MCU\Program\Bluetooth_Baud_Rate_v1\Bluetooth_Baud_Rate_v1.c"
  61  0030  301B        	set [27].0
  61  0031              _L31:
  62  0031              #line 62 "D:\Wade\Project\Robot_Arm\Holtek MCU\Program\Bluetooth_Baud_Rate_v1\Bluetooth_Baud_Rate_v1.c"
  62  0031  0F0A        	mov a,10
  62  0032  0080     R  	mov _delay_2[0],a
  62  0033  1F00     R  	clr _delay_2[1]
  62  0034              	fcall _delay
  62  003B  2800     R  	jmp _L28
  62  003C  2800     R  	jmp $
  62  003D              _main endp
  62  003D              
  62  003D              @dummy endp
  62  003D              
  62  003D              #line 62 "D:\Wade\Project\Robot_Arm\Holtek MCU\Program\Bluetooth_Baud_Rate_v1\Bluetooth_Baud_Rate_v1.c"
  62  003D              #pragma debug scope 1 1
"File: Bluetooth_Baud_Rate_v1.c  Assembler  Version HGASM0202      Page 8

  62  003D              ___pf equ [36]
  62  003D              ___pg equ [39]
  62  003D              public _Segment
  62  003D              #pragma debug scope 10 1
 109  003D              #line 109 "D:\Wade\Project\Robot_Arm\Holtek MCU\Program\Bluetooth_Baud_Rate_v1\Bluetooth_Baud_Rate_v1.c"
 109  0000              _Segment .section 'code'
 109  0000              _Segment proc
 109  0000              public _Segment_2
 109  0000  0002[           local _Segment_2 db 2 dup(?)	; 2,0
            00
            ]
 109  0002              #pragma debug variable 10 10 _Segment_2+0 "Value"
 110  0002              #line 110 "D:\Wade\Project\Robot_Arm\Holtek MCU\Program\Bluetooth_Baud_Rate_v1\Bluetooth_Baud_Rate_v1.c"
 110  0000  3024        	set [36].0
 111  0001              #line 111 "D:\Wade\Project\Robot_Arm\Holtek MCU\Program\Bluetooth_Baud_Rate_v1\Bluetooth_Baud_Rate_v1.c"
 111  0001  1B10        	rrca intc
 111  0002  3410        	clr intc.0
 111  0003  0700     R  	mov a,_Segment_2[0]
 111  0004  00D9        	mov mduwr0,a
 111  0005  0700     R  	mov a,_Segment_2[1]
 111  0006  00DA        	mov mduwr1,a
 111  0007  0FE8        	mov a,232
 111  0008  00DD        	mov mduwr4,a
 111  0009  0F03        	mov a,3
 111  000A  00DE        	mov mduwr5,a
 111  000B  0F06        	mov a,6
 111  000C              _LI1:
 111  000C  1785        	sdz acc
 111  000D  2800     R  	jmp _LI1
 111  000E  0759        	mov a,mduwr0
 111  000F  0080     E  	mov rb,a
 111  0010  075A        	mov a,mduwr1
 111  0011  0080     E  	mov rc,a
 111  0012  3C0A        	sz c
 111  0013  3010        	set intc.0
 111  0014  1B10        	rrca intc
 111  0015  3410        	clr intc.0
 111  0016  0700     E  	mov a,rb
 111  0017  00D9        	mov mduwr0,a
 111  0018  0700     E  	mov a,rc
 111  0019  00DA        	mov mduwr1,a
 111  001A  0F0A        	mov a,10
 111  001B  00DD        	mov mduwr4,a
 111  001C  0F00        	mov a,0
 111  001D  00DE        	mov mduwr5,a
 111  001E  0F06        	mov a,6
 111  001F              _LI2:
 111  001F  1785        	sdz acc
 111  0020  2800     R  	jmp _LI2
 111  0021  075D        	mov a,mduwr4
 111  0022  0080     E  	mov rb,a
 111  0023  075E        	mov a,mduwr5
 111  0024  0080     E  	mov rc,a
 111  0025  3C0A        	sz c
 111  0026  3010        	set intc.0
 111  0027  340A        	clr c
 111  0028  1A80     E  	rlc rb
 111  0029  1A80     E  	rlc rc
 111  002A  0F00     R  	mov a,low offset _tag
 111  002B  0300     E  	add a,rb
"File: Bluetooth_Baud_Rate_v1.c  Assembler  Version HGASM0202      Page 9

 111  002C  0083        	mov mp,a
 111  002D  0F00     R  	mov a,high offset _tag
 111  002E  1300     E  	adc a,rc
 111  002F  0084        	mov sbp,a
 111  0030              	fcall _Crom2Prom
 111  0037  00A7        	mov [39],a
 112  0038              #line 112 "D:\Wade\Project\Robot_Arm\Holtek MCU\Program\Bluetooth_Baud_Rate_v1\Bluetooth_Baud_Rate_v1.c"
 112  0038  0F1E        	mov a,30
 112  0039  0080     R  	mov _delay_2[0],a
 112  003A  1F00     R  	clr _delay_2[1]
 112  003B              	fcall _delay
 113  0042              #line 113 "D:\Wade\Project\Robot_Arm\Holtek MCU\Program\Bluetooth_Baud_Rate_v1\Bluetooth_Baud_Rate_v1.c"
 113  0042  3424        	clr [36].0
 115  0043              #line 115 "D:\Wade\Project\Robot_Arm\Holtek MCU\Program\Bluetooth_Baud_Rate_v1\Bluetooth_Baud_Rate_v1.c"
 115  0043  30A4        	set [36].1
 116  0044              #line 116 "D:\Wade\Project\Robot_Arm\Holtek MCU\Program\Bluetooth_Baud_Rate_v1\Bluetooth_Baud_Rate_v1.c"
 116  0044  1B10        	rrca intc
 116  0045  3410        	clr intc.0
 116  0046  0700     R  	mov a,_Segment_2[0]
 116  0047  00D9        	mov mduwr0,a
 116  0048  0700     R  	mov a,_Segment_2[1]
 116  0049  00DA        	mov mduwr1,a
 116  004A  0F64        	mov a,100
 116  004B  00DD        	mov mduwr4,a
 116  004C  0F00        	mov a,0
 116  004D  00DE        	mov mduwr5,a
 116  004E  0F06        	mov a,6
 116  004F              _LI3:
 116  004F  1785        	sdz acc
 116  0050  2800     R  	jmp _LI3
 116  0051  0759        	mov a,mduwr0
 116  0052  0080     E  	mov rb,a
 116  0053  075A        	mov a,mduwr1
 116  0054  0080     E  	mov rc,a
 116  0055  3C0A        	sz c
 116  0056  3010        	set intc.0
 116  0057  1B10        	rrca intc
 116  0058  3410        	clr intc.0
 116  0059  0700     E  	mov a,rb
 116  005A  00D9        	mov mduwr0,a
 116  005B  0700     E  	mov a,rc
 116  005C  00DA        	mov mduwr1,a
 116  005D  0F0A        	mov a,10
 116  005E  00DD        	mov mduwr4,a
 116  005F  0F00        	mov a,0
 116  0060  00DE        	mov mduwr5,a
 116  0061  0F06        	mov a,6
 116  0062              _LI4:
 116  0062  1785        	sdz acc
 116  0063  2800     R  	jmp _LI4
 116  0064  075D        	mov a,mduwr4
 116  0065  0080     E  	mov rb,a
 116  0066  075E        	mov a,mduwr5
 116  0067  0080     E  	mov rc,a
 116  0068  3C0A        	sz c
 116  0069  3010        	set intc.0
 116  006A  340A        	clr c
 116  006B  1A80     E  	rlc rb
 116  006C  1A80     E  	rlc rc
 116  006D  0F00     R  	mov a,low offset _tag
"File: Bluetooth_Baud_Rate_v1.c  Assembler  Version HGASM0202      Page 10

 116  006E  0300     E  	add a,rb
 116  006F  0083        	mov mp,a
 116  0070  0F00     R  	mov a,high offset _tag
 116  0071  1300     E  	adc a,rc
 116  0072  0084        	mov sbp,a
 116  0073              	fcall _Crom2Prom
 116  007A  00A7        	mov [39],a
 117  007B              #line 117 "D:\Wade\Project\Robot_Arm\Holtek MCU\Program\Bluetooth_Baud_Rate_v1\Bluetooth_Baud_Rate_v1.c"
 117  007B  0F1E        	mov a,30
 117  007C  0080     R  	mov _delay_2[0],a
 117  007D  1F00     R  	clr _delay_2[1]
 117  007E              	fcall _delay
 118  0085              #line 118 "D:\Wade\Project\Robot_Arm\Holtek MCU\Program\Bluetooth_Baud_Rate_v1\Bluetooth_Baud_Rate_v1.c"
 118  0085  34A4        	clr [36].1
 120  0086              #line 120 "D:\Wade\Project\Robot_Arm\Holtek MCU\Program\Bluetooth_Baud_Rate_v1\Bluetooth_Baud_Rate_v1.c"
 120  0086  3124        	set [36].2
 121  0087              #line 121 "D:\Wade\Project\Robot_Arm\Holtek MCU\Program\Bluetooth_Baud_Rate_v1\Bluetooth_Baud_Rate_v1.c"
 121  0087  1B10        	rrca intc
 121  0088  3410        	clr intc.0
 121  0089  0700     R  	mov a,_Segment_2[0]
 121  008A  00D9        	mov mduwr0,a
 121  008B  0700     R  	mov a,_Segment_2[1]
 121  008C  00DA        	mov mduwr1,a
 121  008D  0F0A        	mov a,10
 121  008E  00DD        	mov mduwr4,a
 121  008F  0F00        	mov a,0
 121  0090  00DE        	mov mduwr5,a
 121  0091  0F06        	mov a,6
 121  0092              _LI5:
 121  0092  1785        	sdz acc
 121  0093  2800     R  	jmp _LI5
 121  0094  0759        	mov a,mduwr0
 121  0095  0080     E  	mov rb,a
 121  0096  075A        	mov a,mduwr1
 121  0097  0080     E  	mov rc,a
 121  0098  3C0A        	sz c
 121  0099  3010        	set intc.0
 121  009A  1B10        	rrca intc
 121  009B  3410        	clr intc.0
 121  009C  0700     E  	mov a,rb
 121  009D  00D9        	mov mduwr0,a
 121  009E  0700     E  	mov a,rc
 121  009F  00DA        	mov mduwr1,a
 121  00A0  0F0A        	mov a,10
 121  00A1  00DD        	mov mduwr4,a
 121  00A2  0F00        	mov a,0
 121  00A3  00DE        	mov mduwr5,a
 121  00A4  0F06        	mov a,6
 121  00A5              _LI6:
 121  00A5  1785        	sdz acc
 121  00A6  2800     R  	jmp _LI6
 121  00A7  075D        	mov a,mduwr4
 121  00A8  0080     E  	mov rb,a
 121  00A9  075E        	mov a,mduwr5
 121  00AA  0080     E  	mov rc,a
 121  00AB  3C0A        	sz c
 121  00AC  3010        	set intc.0
 121  00AD  340A        	clr c
 121  00AE  1A80     E  	rlc rb
 121  00AF  1A80     E  	rlc rc
"File: Bluetooth_Baud_Rate_v1.c  Assembler  Version HGASM0202      Page 11

 121  00B0  0F00     R  	mov a,low offset _tag
 121  00B1  0300     E  	add a,rb
 121  00B2  0083        	mov mp,a
 121  00B3  0F00     R  	mov a,high offset _tag
 121  00B4  1300     E  	adc a,rc
 121  00B5  0084        	mov sbp,a
 121  00B6              	fcall _Crom2Prom
 121  00BD  00A7        	mov [39],a
 122  00BE              #line 122 "D:\Wade\Project\Robot_Arm\Holtek MCU\Program\Bluetooth_Baud_Rate_v1\Bluetooth_Baud_Rate_v1.c"
 122  00BE  0F1E        	mov a,30
 122  00BF  0080     R  	mov _delay_2[0],a
 122  00C0  1F00     R  	clr _delay_2[1]
 122  00C1              	fcall _delay
 123  00C8              #line 123 "D:\Wade\Project\Robot_Arm\Holtek MCU\Program\Bluetooth_Baud_Rate_v1\Bluetooth_Baud_Rate_v1.c"
 123  00C8  3524        	clr [36].2
 125  00C9              #line 125 "D:\Wade\Project\Robot_Arm\Holtek MCU\Program\Bluetooth_Baud_Rate_v1\Bluetooth_Baud_Rate_v1.c"
 125  00C9  31A4        	set [36].3
 126  00CA              #line 126 "D:\Wade\Project\Robot_Arm\Holtek MCU\Program\Bluetooth_Baud_Rate_v1\Bluetooth_Baud_Rate_v1.c"
 126  00CA  1B10        	rrca intc
 126  00CB  3410        	clr intc.0
 126  00CC  0700     R  	mov a,_Segment_2[0]
 126  00CD  00D9        	mov mduwr0,a
 126  00CE  0700     R  	mov a,_Segment_2[1]
 126  00CF  00DA        	mov mduwr1,a
 126  00D0  0F0A        	mov a,10
 126  00D1  00DD        	mov mduwr4,a
 126  00D2  0F00        	mov a,0
 126  00D3  00DE        	mov mduwr5,a
 126  00D4  0F06        	mov a,6
 126  00D5              _LI7:
 126  00D5  1785        	sdz acc
 126  00D6  2800     R  	jmp _LI7
 126  00D7  075D        	mov a,mduwr4
 126  00D8  0080     E  	mov rb,a
 126  00D9  075E        	mov a,mduwr5
 126  00DA  0080     E  	mov rc,a
 126  00DB  3C0A        	sz c
 126  00DC  3010        	set intc.0
 126  00DD  340A        	clr c
 126  00DE  1A80     E  	rlc rb
 126  00DF  1A80     E  	rlc rc
 126  00E0  0F00     R  	mov a,low offset _tag
 126  00E1  0300     E  	add a,rb
 126  00E2  0083        	mov mp,a
 126  00E3  0F00     R  	mov a,high offset _tag
 126  00E4  1300     E  	adc a,rc
 126  00E5  0084        	mov sbp,a
 126  00E6              	fcall _Crom2Prom
 126  00ED  00A7        	mov [39],a
 127  00EE              #line 127 "D:\Wade\Project\Robot_Arm\Holtek MCU\Program\Bluetooth_Baud_Rate_v1\Bluetooth_Baud_Rate_v1.c"
 127  00EE  0F1E        	mov a,30
 127  00EF  0080     R  	mov _delay_2[0],a
 127  00F0  1F00     R  	clr _delay_2[1]
 127  00F1              	fcall _delay
 128  00F8              #line 128 "D:\Wade\Project\Robot_Arm\Holtek MCU\Program\Bluetooth_Baud_Rate_v1\Bluetooth_Baud_Rate_v1.c"
 128  00F8  35A4        	clr [36].3
 128  00F9  0003        	ret
 128  00FA              _Segment endp
 128  00FA              #line 128 "D:\Wade\Project\Robot_Arm\Holtek MCU\Program\Bluetooth_Baud_Rate_v1\Bluetooth_Baud_Rate_v1.c"
 128  00FA              #pragma debug scope 1 1
"File: Bluetooth_Baud_Rate_v1.c  Assembler  Version HGASM0202      Page 12

 128  00FA              public _scan
 128  0000              @crom	.section 'crom'
  21  0000              #line 21 "D:\Wade\Project\Robot_Arm\Holtek MCU\Program\Bluetooth_Baud_Rate_v1\Bluetooth_Baud_Rate_v1.c"
  21  0000              @crom	.section	'crom'
  21  0000              _scan:
  21  0000              #pragma debug array 42 10 4 1
  21  0000              #pragma debug array 42 10 4 1
  21  0000              #pragma debug variable 42 1 _scan "scan"
  21  0000  0001        	dc 1
  21  0001  0002        	dc 2
  21  0002  0004        	dc 4
  21  0003  0008        	dc 8
  21  0004              public _tag
  18  0004              #line 18 "D:\Wade\Project\Robot_Arm\Holtek MCU\Program\Bluetooth_Baud_Rate_v1\Bluetooth_Baud_Rate_v1.c"
  18  0004              @crom	.section	'crom'
  18  0004              _tag:
  18  0004              #pragma debug array 43 10 10 1
  18  0004              #pragma debug array 43 10 10 1
  18  0004              #pragma debug variable 43 1 _tag "tag"
  18  0004  003F        	dc 63
  18  0005  0006        	dc 6
  18  0006  005B        	dc 91
  18  0007  004F        	dc 79
  18  0008  0066        	dc 102
  18  0009  006D        	dc 109
  18  000A  007D        	dc 125
  18  000B  0027        	dc 39
  18  000C  007F        	dc 127
  18  000D  006F        	dc 111
  18  000E              public _kn
  18  0000              @HCCINIT	.section 'data'
   7  0000              #line 7 "D:\Wade\Project\Robot_Arm\Holtek MCU\Program\Bluetooth_Baud_Rate_v1\Bluetooth_Baud_Rate_v1.c"
   7  0000              @HCCINIT_kn .section 'data'
   7  0000              _kn label byte
   7  0000              #pragma debug variable 10 1 _kn "kn"
   7  0000              	db 0
   7  0000              @ROMDATA_BASE .section inpage 'code'
   7  0000              	db 0
   7  0001              @HCCINIT_kn .section 'data'
   7  0001              	db 0
   7  0001              @ROMDATA_BASE .section inpage 'code'
   7  0001              	db 0
   7  0002              @HCCINIT_kn .section 'data'
   6  0002              #line 6 "D:\Wade\Project\Robot_Arm\Holtek MCU\Program\Bluetooth_Baud_Rate_v1\Bluetooth_Baud_Rate_v1.c"
   6  0002              public _Data
   6  0000              @HCCINIT0_Data .section 'data'
   6  0000  000A[       _Data	db 10 dup(0)
            00
            ]
   6  000A              #pragma debug array 44 8 10 1
   6  000A              #pragma debug array 44 8 10 1
   6  000A              #pragma debug variable 44 1 _Data "Data"
   6  000A              
   6  0000              @HCCINIT .section 'data'
   5  0000              #line 5 "D:\Wade\Project\Robot_Arm\Holtek MCU\Program\Bluetooth_Baud_Rate_v1\Bluetooth_Baud_Rate_v1.c"
   5  0000              public _R_Data
   5  0000              @HCCINIT0_R_Data .section 'data'
   5  0000  000A[       _R_Data	db 10 dup(0)
            00
            ]
"File: Bluetooth_Baud_Rate_v1.c  Assembler  Version HGASM0202      Page 13

   5  000A              #pragma debug variable 44 1 _R_Data "R_Data"
   5  000A              
   5  0000              @HCCINIT .section 'data'
   5  0000              #pragma debug struct_end
   5  0000              #pragma debug struct_end
   5  0000              #pragma debug union_end
   5  0000              #pragma debug union_end
   5  0000              #pragma debug variable 46 1 ___intc0 "__intc0" 1
   5  0000              #pragma debug struct_end
   5  0000              #pragma debug struct_end
   5  0000              #pragma debug union_end
   5  0000              #pragma debug union_end
   5  0000              #pragma debug variable 48 1 ___intc3 "__intc3" 1
   5  0000              #pragma debug struct_end
   5  0000              #pragma debug struct_end
   5  0000              #pragma debug union_end
   5  0000              #pragma debug union_end
   5  0000              #pragma debug variable 50 1 ___pc "__pc" 1
   5  0000              #pragma debug struct_end
   5  0000              #pragma debug struct_end
   5  0000              #pragma debug union_end
   5  0000              #pragma debug union_end
   5  0000              #pragma debug variable 52 1 ___pcc "__pcc" 1
   5  0000              #pragma debug struct_end
   5  0000              #pragma debug struct_end
   5  0000              #pragma debug union_end
   5  0000              #pragma debug union_end
   5  0000              #pragma debug variable 54 1 ___pf "__pf" 1
   5  0000              #pragma debug struct_end
   5  0000              #pragma debug struct_end
   5  0000              #pragma debug union_end
   5  0000              #pragma debug union_end
   5  0000              #pragma debug variable 56 1 ___pfc "__pfc" 1
   5  0000              #pragma debug struct_end
   5  0000              #pragma debug struct_end
   5  0000              #pragma debug union_end
   5  0000              #pragma debug union_end
   5  0000              #pragma debug variable 58 1 ___pg "__pg" 1
   5  0000              #pragma debug struct_end
   5  0000              #pragma debug struct_end
   5  0000              #pragma debug union_end
   5  0000              #pragma debug union_end
   5  0000              #pragma debug variable 60 1 ___pgc "__pgc" 1
   5  0000              #pragma debug struct_end
   5  0000              #pragma debug struct_end
   5  0000              #pragma debug union_end
   5  0000              #pragma debug union_end
   5  0000              #pragma debug variable 62 1 ___mfi5 "__mfi5" 1
   5  0000              #pragma debug struct_end
   5  0000              #pragma debug struct_end
   5  0000              #pragma debug union_end
   5  0000              #pragma debug union_end
   5  0000              #pragma debug variable 64 1 ___scc "__scc" 1
   5  0000              #pragma debug struct_end
   5  0000              #pragma debug struct_end
   5  0000              #pragma debug union_end
   5  0000              #pragma debug union_end
   5  0000              #pragma debug variable 66 1 ___hircc "__hircc" 1
   5  0000              #pragma debug struct_end
   5  0000              #pragma debug struct_end
"File: Bluetooth_Baud_Rate_v1.c  Assembler  Version HGASM0202      Page 14

   5  0000              #pragma debug union_end
   5  0000              #pragma debug union_end
   5  0000              #pragma debug variable 68 1 ___wdtc "__wdtc" 1
   5  0000              #pragma debug struct_end
   5  0000              #pragma debug struct_end
   5  0000              #pragma debug union_end
   5  0000              #pragma debug union_end
   5  0000              #pragma debug variable 70 1 ___u0sr "__u0sr" 1
   5  0000              #pragma debug struct_end
   5  0000              #pragma debug struct_end
   5  0000              #pragma debug union_end
   5  0000              #pragma debug union_end
   5  0000              #pragma debug variable 72 1 ___u0cr1 "__u0cr1" 1
   5  0000              #pragma debug struct_end
   5  0000              #pragma debug struct_end
   5  0000              #pragma debug union_end
   5  0000              #pragma debug union_end
   5  0000              #pragma debug variable 74 1 ___u0cr2 "__u0cr2" 1
   5  0000              #pragma debug variable 8 1 ___txr_rxr0 "__txr_rxr0" 1
   5  0000              #pragma debug variable 8 1 ___brg0 "__brg0" 1
   5  0000              #pragma debug struct_end
   5  0000              #pragma debug struct_end
   5  0000              #pragma debug union_end
   5  0000              #pragma debug union_end
   5  0000              #pragma debug variable 76 1 ___pas1 "__pas1" 1
   5  0000              extern r1:byte
   5  0000              extern r2:byte
   5  0000              extern r3:byte
   5  0000              extern r4:byte
   5  0000              extern r5:byte
   5  0000              extern r6:byte
   5  0000              extern r7:byte
  34  0000              #line 34 "D:\Wade\Project\Robot_Arm\Holtek MCU\Program\Bluetooth_Baud_Rate_v1\Bluetooth_Baud_Rate_v1.c"
  34  0000              @code .section at 0 'code'
  34  0000  1F0B        	clr bp
  34  0001  2800     R  	jmp _main_startup1
  34  0002              
  34  0002              
  34  0002              ; 
  34  0002              ; Generated by holtek-gcc v3.19, Wed Oct 13 14:04:30 2021
  34  0002              ; Rebuild 718
  34  0002              ; end of file


        0 Errors, 0