"File: Servo_test_v1.c  Assembler  Version HGASM0202      Page 1


   1  0000              ; Generated by holtek-gcc v3.19, Sun Dec 19 16:40:55 2021
   2  0000              ; 
   3  0000              ; Configuration:
   4  0000              ;       with long instruction
   5  0000              ;       Multi-ROM, Multi-RAM
   6  0000              ;       bits_per_rom_unit:16
   7  0000              ;       with mp1
   8  0000              ;       with tbhp, address(0x9)
   9  0000              ;          Use tabrd-const
  10  0000              ;       
  11  0000              ; SFR address of long-instruction arch:
  12  0000              ;    mp0 = -1,1,0
  13  0000              ;    mp1 = 4,3,2
  14  0000              ;    mp2 = 14,13,12
  15  0000              ;    tbp = 9,7,8
  16  0000              ;    acc = 5
  17  0000              ;    pcl = 6
  18  0000              ;    status = 10
  19  0000              ;    bp = 11
  20  0000              ;    intc = 16
  21  0000              ;       
  22  0000              ;       
  23  0000              ; use 'tabrdc' instead of 'tabrd'
  24  0000              ;       
  25  0000              
  26  0000              #pragma translator "holtek-gcc 4.6.4" "3.19" "build 20130711"
  27  0000              ; Rebuild 718
  28  0000              
  29  0000              ir equ [2]
  30  0000              mp equ [3]
  31  0000              sbp equ [4]
  32  0000              acc equ [5]
  33  0000              bp equ [11]
  34  0000              tblp equ [7]
  35  0000              tbhp equ [9]
  36  0000              status equ [10]
  37  0000              c equ [10].0
  38  0000              ac equ [10].1
  39  0000              z equ [10].2
  40  0000              ov equ [10].3
  41  0000              cz equ [10].6
  42  0000              sc equ [10].7
  43  0000              intc equ [16]
  44  0000              mduwr0 equ [59h]
  45  0000              mduwr1 equ [5ah]
  46  0000              mduwr2 equ [5bh]
  47  0000              mduwr3 equ [5ch]
  48  0000              mduwr4 equ [5dh]
  49  0000              mduwr5 equ [5eh]
  50  0000              mduwrctrl equ [5fh]
  51  0000              
  52  0000              extern ra:byte
  53  0000              extern rb:byte
  54  0000              extern rc:byte
  55  0000              extern rd:byte
  56  0000              extern re:byte
  57  0000              extern rf:byte
  58  0000              extern rg:byte
  59  0000              extern rh:byte
"File: Servo_test_v1.ASM  Assembler  Version HGASM0202      Page 2

  60  0000              extern _Crom2Prom:near
  61  0000              extern _Crom2PromNext:near
  62  0000              
  63  0000              RAMBANK 0 @BITDATASEC, @BITDATASEC1
  64  0000              @HCCINIT	.section 'data'
  65  0000              @HCCINIT0	.section 'data'
  66  0000              @BITDATASEC	 .section 'data'
  67  0000              @BITDATASEC1	 .section 'data'
  68  0000              
  69  0000              #pragma debug scope 1 1
  70  0000              	extern __DELAY3:near
  71  0000              	extern __DELAYX3:near
  72  0000              	extern __DELAYX6:near
  73  0000              	extern __DELAYY5:near
  74  0000              	extern __DELAYY3:near
  75  0000              	extern _builtin_holtek_delay_2:byte
  76  0000              ___stm0c0 equ [78]
  77  0000              ___stm0c1 equ [79]
  78  0000              ___stm0rp equ [84]
  79  0000              ___stm1c0 equ [306]
  80  0000              ___stm1c1 equ [307]
  81  0000              ___stm1rp equ [312]
  82  0000              ___stm2c0 equ [313]
  83  0000              ___stm2c1 equ [314]
  84  0000              ___stm2rp equ [319]
  85  0000              ___ptm0c0 equ [70]
  86  0000              ___ptm0c1 equ [71]
  87  0000              ___ptm0rpl equ [76]
  88  0000              ___ptm0rph equ [77]
  89  0000              ___ptm1c0 equ [282]
  90  0000              ___ptm1c1 equ [283]
  91  0000              ___ptm1rpl equ [288]
  92  0000              ___ptm1rph equ [289]
  93  0000              ___ptm2c0 equ [290]
  94  0000              ___ptm2c1 equ [291]
  95  0000              ___ptm2rpl equ [296]
  96  0000              ___ptm2rph equ [297]
  97  0000              public _timer_setup
  98  0000              #pragma debug scope 2 1

  42  0000              #line 42 "D:\Wade\Project\Robot_Arm\Holtek_MCU\Program\Servo_test_v1\Servo_test_v1.c"
  42  0000              _timer_setup .section 'code'
  42  0000              _timer_setup proc
  43  0000              #line 43 "D:\Wade\Project\Robot_Arm\Holtek_MCU\Program\Servo_test_v1\Servo_test_v1.c"
  43  0000  0F30        	mov a,48
  43  0001  00CE        	mov [78],a
  44  0002              #line 44 "D:\Wade\Project\Robot_Arm\Holtek_MCU\Program\Servo_test_v1\Servo_test_v1.c"
  44  0002  0FA8        	mov a,168
  44  0003  00CF        	mov [79],a
  45  0004              #line 45 "D:\Wade\Project\Robot_Arm\Holtek_MCU\Program\Servo_test_v1\Servo_test_v1.c"
  45  0004  0F14        	mov a,20
  45  0005  00D4        	mov [84],a
  47  0006              #line 47 "D:\Wade\Project\Robot_Arm\Holtek_MCU\Program\Servo_test_v1\Servo_test_v1.c"
  47  0006  0F30        	mov a,48
  47  0007  80B2 0001   	lmov [306],a
  48  0009              #line 48 "D:\Wade\Project\Robot_Arm\Holtek_MCU\Program\Servo_test_v1\Servo_test_v1.c"
  48  0009  0FA8        	mov a,168
  48  000A  80B3 0001   	lmov [307],a
  49  000C              #line 49 "D:\Wade\Project\Robot_Arm\Holtek_MCU\Program\Servo_test_v1\Servo_test_v1.c"
  49  000C  0F14        	mov a,20
"File: Servo_test_v1.c  Assembler  Version HGASM0202      Page 3

  49  000D  80B8 0001   	lmov [312],a
  51  000F              #line 51 "D:\Wade\Project\Robot_Arm\Holtek_MCU\Program\Servo_test_v1\Servo_test_v1.c"
  51  000F  0F30        	mov a,48
  51  0010  80B9 0001   	lmov [313],a
  52  0012              #line 52 "D:\Wade\Project\Robot_Arm\Holtek_MCU\Program\Servo_test_v1\Servo_test_v1.c"
  52  0012  0FA8        	mov a,168
  52  0013  80BA 0001   	lmov [314],a
  53  0015              #line 53 "D:\Wade\Project\Robot_Arm\Holtek_MCU\Program\Servo_test_v1\Servo_test_v1.c"
  53  0015  0F14        	mov a,20
  53  0016  80BF 0001   	lmov [319],a
  55  0018              #line 55 "D:\Wade\Project\Robot_Arm\Holtek_MCU\Program\Servo_test_v1\Servo_test_v1.c"
  55  0018  0F30        	mov a,48
  55  0019  00C6        	mov [70],a
  56  001A              #line 56 "D:\Wade\Project\Robot_Arm\Holtek_MCU\Program\Servo_test_v1\Servo_test_v1.c"
  56  001A  0FA8        	mov a,168
  56  001B  00C7        	mov [71],a
  57  001C              #line 57 "D:\Wade\Project\Robot_Arm\Holtek_MCU\Program\Servo_test_v1\Servo_test_v1.c"
  57  001C  1F4C        	clr [76]
  57  001D  0F14        	mov a,20
  57  001E  00CD        	mov [77],a
  59  001F              #line 59 "D:\Wade\Project\Robot_Arm\Holtek_MCU\Program\Servo_test_v1\Servo_test_v1.c"
  59  001F  0F30        	mov a,48
  59  0020  809A 0001   	lmov [282],a
  60  0022              #line 60 "D:\Wade\Project\Robot_Arm\Holtek_MCU\Program\Servo_test_v1\Servo_test_v1.c"
  60  0022  0FA8        	mov a,168
  60  0023  809B 0001   	lmov [283],a
  61  0025              #line 61 "D:\Wade\Project\Robot_Arm\Holtek_MCU\Program\Servo_test_v1\Servo_test_v1.c"
  61  0025  9F20 0001   	lclr [288]
  61  0027  0F14        	mov a,20
  61  0028  80A1 0001   	lmov [289],a
  63  002A              #line 63 "D:\Wade\Project\Robot_Arm\Holtek_MCU\Program\Servo_test_v1\Servo_test_v1.c"
  63  002A  0F30        	mov a,48
  63  002B  80A2 0001   	lmov [290],a
  64  002D              #line 64 "D:\Wade\Project\Robot_Arm\Holtek_MCU\Program\Servo_test_v1\Servo_test_v1.c"
  64  002D  0FA8        	mov a,168
  64  002E  80A3 0001   	lmov [291],a
  65  0030              #line 65 "D:\Wade\Project\Robot_Arm\Holtek_MCU\Program\Servo_test_v1\Servo_test_v1.c"
  65  0030  9F28 0001   	lclr [296]
  65  0032  0F14        	mov a,20
  65  0033  80A9 0001   	lmov [297],a
  65  0035  0003        	ret
  65  0036              _timer_setup endp
  65  0036              #line 65 "D:\Wade\Project\Robot_Arm\Holtek_MCU\Program\Servo_test_v1\Servo_test_v1.c"
  65  0036              #pragma debug scope 1 1
  65  0036              ___pcs1 equ [338]
  65  0036              ___pds0 equ [339]
  65  0036              ___pfs1 equ [344]
  65  0036              ___pcs0 equ [337]
  65  0036              ___stm0al equ [82]
  65  0036              ___stm0ah equ [83]
  65  0036              ___stm1al equ [310]
  65  0036              ___stm1ah equ [311]
  65  0036              ___stm2al equ [317]
  65  0036              ___stm2ah equ [318]
  65  0036              ___ptm0al equ [74]
  65  0036              ___ptm0ah equ [75]
  65  0036              ___ptm1al equ [286]
  65  0036              ___ptm1ah equ [287]
  65  0036              ___ptm2al equ [294]
  65  0036              ___ptm2ah equ [295]
"File: Servo_test_v1.c  Assembler  Version HGASM0202      Page 4

  65  0036              public _servo_setup
  65  0036              #pragma debug scope 3 1
  69  0036              #line 69 "D:\Wade\Project\Robot_Arm\Holtek_MCU\Program\Servo_test_v1\Servo_test_v1.c"
  69  0000              _servo_setup .section 'code'
  69  0000              _servo_setup proc
  70  0000              #line 70 "D:\Wade\Project\Robot_Arm\Holtek_MCU\Program\Servo_test_v1\Servo_test_v1.c"
  70  0000              	fcall _timer_setup
  71  0007              #line 71 "D:\Wade\Project\Robot_Arm\Holtek_MCU\Program\Servo_test_v1\Servo_test_v1.c"
  71  0007  0F22        	mov a,34
  71  0008  80D2 0001   	lmov [338],a
  72  000A              #line 72 "D:\Wade\Project\Robot_Arm\Holtek_MCU\Program\Servo_test_v1\Servo_test_v1.c"
  72  000A  0F12        	mov a,18
  72  000B  80D3 0001   	lmov [339],a
  73  000D              #line 73 "D:\Wade\Project\Robot_Arm\Holtek_MCU\Program\Servo_test_v1\Servo_test_v1.c"
  73  000D  0F80        	mov a,128
  73  000E  80D8 0001   	lmov [344],a
  74  0010              #line 74 "D:\Wade\Project\Robot_Arm\Holtek_MCU\Program\Servo_test_v1\Servo_test_v1.c"
  74  0010  0F20        	mov a,32
  74  0011  80D1 0001   	lmov [337],a
  76  0013              #line 76 "D:\Wade\Project\Robot_Arm\Holtek_MCU\Program\Servo_test_v1\Servo_test_v1.c"
  76  0013  31CE        	set [78].3
  76  0014  1F52        	clr [82]
  76  0015  0F01        	mov a,1
  76  0016  00D3        	mov [83],a
  77  0017              #line 77 "D:\Wade\Project\Robot_Arm\Holtek_MCU\Program\Servo_test_v1\Servo_test_v1.c"
  77  0017  B1B2 0001   	lset [306].3
  77  0019  9F36 0001   	lclr [310]
  77  001B  0F01        	mov a,1
  77  001C  80B7 0001   	lmov [311],a
  78  001E              #line 78 "D:\Wade\Project\Robot_Arm\Holtek_MCU\Program\Servo_test_v1\Servo_test_v1.c"
  78  001E  B1B9 0001   	lset [313].3
  78  0020  9F3D 0001   	lclr [317]
  78  0022  0F01        	mov a,1
  78  0023  80BE 0001   	lmov [318],a
  79  0025              #line 79 "D:\Wade\Project\Robot_Arm\Holtek_MCU\Program\Servo_test_v1\Servo_test_v1.c"
  79  0025  31C6        	set [70].3
  79  0026  1F4A        	clr [74]
  79  0027  0F01        	mov a,1
  79  0028  00CB        	mov [75],a
  80  0029              #line 80 "D:\Wade\Project\Robot_Arm\Holtek_MCU\Program\Servo_test_v1\Servo_test_v1.c"
  80  0029  B19A 0001   	lset [282].3
  80  002B  9F1E 0001   	lclr [286]
  80  002D  0F01        	mov a,1
  80  002E  809F 0001   	lmov [287],a
  81  0030              #line 81 "D:\Wade\Project\Robot_Arm\Holtek_MCU\Program\Servo_test_v1\Servo_test_v1.c"
  81  0030  B1A2 0001   	lset [290].3
  81  0032  0F0A        	mov a,10
  81  0033  80A6 0001   	lmov [294],a
  81  0035  0F01        	mov a,1
  81  0036  80A7 0001   	lmov [295],a
  81  0038  0003        	ret
  81  0039              _servo_setup endp
  81  0039              #line 81 "D:\Wade\Project\Robot_Arm\Holtek_MCU\Program\Servo_test_v1\Servo_test_v1.c"
  81  0039              #pragma debug scope 1 1
  81  0039              public _delay
  81  0039              #pragma debug scope 4 1
  85  0039              #line 85 "D:\Wade\Project\Robot_Arm\Holtek_MCU\Program\Servo_test_v1\Servo_test_v1.c"
  85  0000              _delay .section 'code'
  85  0000              _delay proc
  85  0000              public _delay_2
"File: Servo_test_v1.c  Assembler  Version HGASM0202      Page 5

  85  0000  0002[           local _delay_2 db 2 dup(?)	; 2,0
            00
            ]
  85  0002              #pragma debug variable 10 4 _delay_2+0 "var"
  87  0002              #line 87 "D:\Wade\Project\Robot_Arm\Holtek_MCU\Program\Servo_test_v1\Servo_test_v1.c"
  87  0000  1F00     E  	clr rb
  87  0001  1F00     E  	clr rc
  87  0002              _L4:
  87  0002              #line 87 "D:\Wade\Project\Robot_Arm\Holtek_MCU\Program\Servo_test_v1\Servo_test_v1.c"
  87  0002  0700     E  	mov a,rb
  87  0003  0200     R  	sub a,_delay_2[0]
  87  0004  0700     E  	mov a,rc
  87  0005  1200     R  	sbc a,_delay_2[1]
  87  0006  3F0A        	sz cz
  87  0007  2800     R  	jmp _L3
  87  0008  1F00     E  	clr ra
  87  0009              _L7:
  89  0009              #line 89 "D:\Wade\Project\Robot_Arm\Holtek_MCU\Program\Servo_test_v1\Servo_test_v1.c"
  89  0009              ;# 89 "D:\Wade\Project\Robot_Arm\Holtek_MCU\Program\Servo_test_v1\Servo_test_v1.c" 1
  89  0009  0000        	nop
  89  000A  1480     E  	inc ra
  88  000B              #line 88 "D:\Wade\Project\Robot_Arm\Holtek_MCU\Program\Servo_test_v1\Servo_test_v1.c"
  88  000B  0700     E  	mov a,ra
  88  000C  0A19        	sub a,25
  88  000D  390A        	snz z
  88  000E  2800     R  	jmp _L7
  87  000F              #line 87 "D:\Wade\Project\Robot_Arm\Holtek_MCU\Program\Servo_test_v1\Servo_test_v1.c"
  87  000F  1480     E  	inc rb
  87  0010  3D0A        	sz z
  87  0011  1480     E  	inc rc
  87  0012  2800     R  	jmp _L4
  87  0013              _L3:
  87  0013  0003        	ret
  87  0014              _delay endp
  87  0014              #line 87 "D:\Wade\Project\Robot_Arm\Holtek_MCU\Program\Servo_test_v1\Servo_test_v1.c"
  87  0014              #pragma debug scope 1 1
  87  0014              ___wdtc equ [62]
  87  0014              ___scc equ [58]
  87  0014              ___hircc equ [59]
  87  0014              public _main
  87  0014              #pragma debug scope 5 1
  10  0014              #line 10 "D:\Wade\Project\Robot_Arm\Holtek_MCU\Program\Servo_test_v1\Servo_test_v1.c"
  10  0014              IFDEF WITH_DEFAULT_STARTUP
  10  0014              extern _main_initial0:near
  10  0014              extern _main_startup:near
  10  0014              ENDIF
  10  0014              
  10  0014              ROMBANK 0 @start
  10  0000              @start .section com_l 'code'
  10  0000              _main_startup1:
  10  0000              @start .section com_e 'code'
  10  0000  0F00     R  	mov a,bank _main
  10  0001  008B        	mov bp,a
  10  0002  2800     R  	jmp _main
  10  0003              
  10  0000              _main .section 'code'
  10  0000              _main proc
  10  0000  0003[           local _main_2 db 3 dup(?)
            00
            ]
"File: Servo_test_v1.c  Assembler  Version HGASM0202      Page 6

  11  0003              #line 11 "D:\Wade\Project\Robot_Arm\Holtek_MCU\Program\Servo_test_v1\Servo_test_v1.c"
  11  0000  0FAB        	mov a,171
  11  0001  00BE        	mov [62],a
  13  0002              #line 13 "D:\Wade\Project\Robot_Arm\Holtek_MCU\Program\Servo_test_v1\Servo_test_v1.c"
  13  0002  0F01        	mov a,1
  13  0003  00BA        	mov [58],a
  14  0004              #line 14 "D:\Wade\Project\Robot_Arm\Holtek_MCU\Program\Servo_test_v1\Servo_test_v1.c"
  14  0004  0F0B        	mov a,11
  14  0005  00BB        	mov [59],a
  17  0006              #line 17 "D:\Wade\Project\Robot_Arm\Holtek_MCU\Program\Servo_test_v1\Servo_test_v1.c"
  17  0006              	fcall _servo_setup
  17  000D              _L13:
  17  000D              #pragma debug scope 6 5
  17  000D              ;begin block, line: 17.-1
  21  000D              #line 21 "D:\Wade\Project\Robot_Arm\Holtek_MCU\Program\Servo_test_v1\Servo_test_v1.c"
  21  000D  1F52        	clr [82]
  21  000E  0F01        	mov a,1
  21  000F  00D3        	mov [83],a
  22  0010              #line 22 "D:\Wade\Project\Robot_Arm\Holtek_MCU\Program\Servo_test_v1\Servo_test_v1.c"
  22  0010  0F30        	mov a,48
  22  0011  0080     R  	mov _delay_2[0],a
  22  0012  0F75        	mov a,117
  22  0013  0080     R  	mov _delay_2[1],a
  22  0014              	fcall _delay
  22  001B  1F00     E  	clr ra
  25  001C              #line 25 "D:\Wade\Project\Robot_Arm\Holtek_MCU\Program\Servo_test_v1\Servo_test_v1.c"
  25  001C  0F01        	mov a,1
  25  001D  0080     R  	mov _main_2[1],a
  25  001E  1F00     R  	clr _main_2[2]
  25  001F              _L11:
  27  001F              #line 27 "D:\Wade\Project\Robot_Arm\Holtek_MCU\Program\Servo_test_v1\Servo_test_v1.c"
  27  001F  1B10        	rrca intc
  27  0020  3410        	clr intc.0
  27  0021  0700     R  	mov a,_main_2[1]
  27  0022  00D9        	mov mduwr0,a
  27  0023  0700     R  	mov a,_main_2[2]
  27  0024  00DA        	mov mduwr1,a
  27  0025  0F12        	mov a,18
  27  0026  00DD        	mov mduwr4,a
  27  0027  0F00        	mov a,0
  27  0028  00DE        	mov mduwr5,a
  27  0029  0F06        	mov a,6
  27  002A              _LI1:
  27  002A  1785        	sdz acc
  27  002B  2800     R  	jmp _LI1
  27  002C  0759        	mov a,mduwr0
  27  002D  0080     E  	mov rb,a
  27  002E  075A        	mov a,mduwr1
  27  002F  0080     E  	mov rc,a
  27  0030  3C0A        	sz c
  27  0031  3010        	set intc.0
  27  0032  0700     E  	mov a,rb
  27  0033  0B14        	add a,20
  27  0034  00D4        	mov [84],a
  27  0035  1400     E  	inca ra
  27  0036  0080     R  	mov _main_2[0],a
  28  0037              #line 28 "D:\Wade\Project\Robot_Arm\Holtek_MCU\Program\Servo_test_v1\Servo_test_v1.c"
  28  0037  0700     R  	mov a,_main_2[0]
  28  0038  00D2        	mov [82],a
  28  0039  0F01        	mov a,1
"File: Servo_test_v1.c  Assembler  Version HGASM0202      Page 7

  28  003A  00D3        	mov [83],a
  29  003B              #line 29 "D:\Wade\Project\Robot_Arm\Holtek_MCU\Program\Servo_test_v1\Servo_test_v1.c"
  29  003B  0F64        	mov a,100
  29  003C  0080     R  	mov _delay_2[0],a
  29  003D  1F00     R  	clr _delay_2[1]
  29  003E              	fcall _delay
  25  0045              #line 25 "D:\Wade\Project\Robot_Arm\Holtek_MCU\Program\Servo_test_v1\Servo_test_v1.c"
  25  0045  1480     R  	inc _main_2[1]
  25  0046  3D0A        	sz z
  25  0047  1480     R  	inc _main_2[2]
  25  0048  0700     R  	mov a,_main_2[0]
  25  0049  0AB4        	sub a,180
  25  004A  3D0A        	sz z
  25  004B  2800     R  	jmp _L10
  25  004C  0700     R  	mov a,_main_2[0]
  25  004D  0080     E  	mov ra,a
  25  004E  2800     R  	jmp _L11
  25  004F              _L10:
  25  004F  1F00     R  	clr _main_2[0]
  25  0050  0FB4        	mov a,-76
  25  0051  0080     R  	mov _main_2[1],a
  25  0052  1F00     R  	clr _main_2[2]
  25  0053              _L14:
  34  0053              #line 34 "D:\Wade\Project\Robot_Arm\Holtek_MCU\Program\Servo_test_v1\Servo_test_v1.c"
  34  0053  1B10        	rrca intc
  34  0054  3410        	clr intc.0
  34  0055  0700     R  	mov a,_main_2[1]
  34  0056  00D9        	mov mduwr0,a
  34  0057  0700     R  	mov a,_main_2[2]
  34  0058  00DA        	mov mduwr1,a
  34  0059  0F12        	mov a,18
  34  005A  00DD        	mov mduwr4,a
  34  005B  0F00        	mov a,0
  34  005C  00DE        	mov mduwr5,a
  34  005D  0F06        	mov a,6
  34  005E              _LI2:
  34  005E  1785        	sdz acc
  34  005F  2800     R  	jmp _LI2
  34  0060  0759        	mov a,mduwr0
  34  0061  0080     E  	mov rb,a
  34  0062  075A        	mov a,mduwr1
  34  0063  0080     E  	mov rc,a
  34  0064  3C0A        	sz c
  34  0065  3010        	set intc.0
  34  0066  0700     E  	mov a,rb
  34  0067  0B14        	add a,20
  34  0068  00D4        	mov [84],a
  35  0069              #line 35 "D:\Wade\Project\Robot_Arm\Holtek_MCU\Program\Servo_test_v1\Servo_test_v1.c"
  35  0069  0FB4        	mov a,180
  35  006A  0200     R  	sub a,_main_2[0]
  35  006B  00D2        	mov [82],a
  35  006C  0F01        	mov a,1
  35  006D  00D3        	mov [83],a
  36  006E              #line 36 "D:\Wade\Project\Robot_Arm\Holtek_MCU\Program\Servo_test_v1\Servo_test_v1.c"
  36  006E  0F64        	mov a,100
  36  006F  0080     R  	mov _delay_2[0],a
  36  0070  1F00     R  	clr _delay_2[1]
  36  0071              	fcall _delay
  32  0078              #line 32 "D:\Wade\Project\Robot_Arm\Holtek_MCU\Program\Servo_test_v1\Servo_test_v1.c"
  32  0078  0FFF        	mov a,255
"File: Servo_test_v1.c  Assembler  Version HGASM0202      Page 8

  32  0079  0380     R  	addm a,_main_2[1]
  32  007A  0FFF        	mov a,255
  32  007B  1380     R  	adcm a,_main_2[2]
  32  007C  1480     R  	inc _main_2[0]
  32  007D  0700     R  	mov a,_main_2[0]
  32  007E  0AB3        	sub a,179
  32  007F  390A        	snz z
  32  0080  2800     R  	jmp _L14
  32  0081  2800     R  	jmp _L13
  32  0082              #pragma debug scope 5 1
  32  0082  2800     R  	jmp $
  32  0083              _main endp
  32  0083              
  32  0083              @dummy endp
  32  0083              
  32  0083              #line 32 "D:\Wade\Project\Robot_Arm\Holtek_MCU\Program\Servo_test_v1\Servo_test_v1.c"
  32  0083              #pragma debug scope 1 1
  32  0083              #pragma debug struct_end
  32  0083              #pragma debug struct_end
  32  0083              #pragma debug union_end
  32  0083              #pragma debug union_end
  32  0083              #pragma debug variable 43 1 ___scc "__scc" 1
  32  0083              #pragma debug struct_end
  32  0083              #pragma debug struct_end
  32  0083              #pragma debug union_end
  32  0083              #pragma debug union_end
  32  0083              #pragma debug variable 45 1 ___hircc "__hircc" 1
  32  0083              #pragma debug struct_end
  32  0083              #pragma debug struct_end
  32  0083              #pragma debug union_end
  32  0083              #pragma debug union_end
  32  0083              #pragma debug variable 47 1 ___wdtc "__wdtc" 1
  32  0083              #pragma debug struct_end
  32  0083              #pragma debug struct_end
  32  0083              #pragma debug union_end
  32  0083              #pragma debug union_end
  32  0083              #pragma debug variable 49 1 ___ptm0c0 "__ptm0c0" 1
  32  0083              #pragma debug struct_end
  32  0083              #pragma debug struct_end
  32  0083              #pragma debug union_end
  32  0083              #pragma debug union_end
  32  0083              #pragma debug variable 51 1 ___ptm0c1 "__ptm0c1" 1
  32  0083              #pragma debug variable 8 1 ___ptm0al "__ptm0al" 1
  32  0083              #pragma debug variable 8 1 ___ptm0ah "__ptm0ah" 1
  32  0083              #pragma debug struct_end
  32  0083              #pragma debug struct_end
  32  0083              #pragma debug union_end
  32  0083              #pragma debug union_end
  32  0083              #pragma debug variable 53 1 ___ptm0rpl "__ptm0rpl" 1
  32  0083              #pragma debug struct_end
  32  0083              #pragma debug struct_end
  32  0083              #pragma debug union_end
  32  0083              #pragma debug union_end
  32  0083              #pragma debug variable 55 1 ___ptm0rph "__ptm0rph" 1
  32  0083              #pragma debug struct_end
  32  0083              #pragma debug struct_end
  32  0083              #pragma debug union_end
  32  0083              #pragma debug union_end
  32  0083              #pragma debug variable 57 1 ___stm0c0 "__stm0c0" 1
  32  0083              #pragma debug struct_end
"File: Servo_test_v1.c  Assembler  Version HGASM0202      Page 9

  32  0083              #pragma debug struct_end
  32  0083              #pragma debug union_end
  32  0083              #pragma debug union_end
  32  0083              #pragma debug variable 59 1 ___stm0c1 "__stm0c1" 1
  32  0083              #pragma debug variable 8 1 ___stm0al "__stm0al" 1
  32  0083              #pragma debug variable 8 1 ___stm0ah "__stm0ah" 1
  32  0083              #pragma debug struct_end
  32  0083              #pragma debug struct_end
  32  0083              #pragma debug union_end
  32  0083              #pragma debug union_end
  32  0083              #pragma debug variable 61 1 ___stm0rp "__stm0rp" 1
  32  0083              #pragma debug struct_end
  32  0083              #pragma debug struct_end
  32  0083              #pragma debug union_end
  32  0083              #pragma debug union_end
  32  0083              #pragma debug variable 63 1 ___ptm1c0 "__ptm1c0" 1
  32  0083              #pragma debug struct_end
  32  0083              #pragma debug struct_end
  32  0083              #pragma debug union_end
  32  0083              #pragma debug union_end
  32  0083              #pragma debug variable 65 1 ___ptm1c1 "__ptm1c1" 1
  32  0083              #pragma debug variable 8 1 ___ptm1al "__ptm1al" 1
  32  0083              #pragma debug variable 8 1 ___ptm1ah "__ptm1ah" 1
  32  0083              #pragma debug struct_end
  32  0083              #pragma debug struct_end
  32  0083              #pragma debug union_end
  32  0083              #pragma debug union_end
  32  0083              #pragma debug variable 67 1 ___ptm1rpl "__ptm1rpl" 1
  32  0083              #pragma debug struct_end
  32  0083              #pragma debug struct_end
  32  0083              #pragma debug union_end
  32  0083              #pragma debug union_end
  32  0083              #pragma debug variable 69 1 ___ptm1rph "__ptm1rph" 1
  32  0083              #pragma debug struct_end
  32  0083              #pragma debug struct_end
  32  0083              #pragma debug union_end
  32  0083              #pragma debug union_end
  32  0083              #pragma debug variable 71 1 ___ptm2c0 "__ptm2c0" 1
  32  0083              #pragma debug struct_end
  32  0083              #pragma debug struct_end
  32  0083              #pragma debug union_end
  32  0083              #pragma debug union_end
  32  0083              #pragma debug variable 73 1 ___ptm2c1 "__ptm2c1" 1
  32  0083              #pragma debug variable 8 1 ___ptm2al "__ptm2al" 1
  32  0083              #pragma debug variable 8 1 ___ptm2ah "__ptm2ah" 1
  32  0083              #pragma debug struct_end
  32  0083              #pragma debug struct_end
  32  0083              #pragma debug union_end
  32  0083              #pragma debug union_end
  32  0083              #pragma debug variable 75 1 ___ptm2rpl "__ptm2rpl" 1
  32  0083              #pragma debug struct_end
  32  0083              #pragma debug struct_end
  32  0083              #pragma debug union_end
  32  0083              #pragma debug union_end
  32  0083              #pragma debug variable 77 1 ___ptm2rph "__ptm2rph" 1
  32  0083              #pragma debug struct_end
  32  0083              #pragma debug struct_end
  32  0083              #pragma debug union_end
  32  0083              #pragma debug union_end
  32  0083              #pragma debug variable 79 1 ___stm1c0 "__stm1c0" 1
"File: Servo_test_v1.c  Assembler  Version HGASM0202      Page 10

  32  0083              #pragma debug struct_end
  32  0083              #pragma debug struct_end
  32  0083              #pragma debug union_end
  32  0083              #pragma debug union_end
  32  0083              #pragma debug variable 81 1 ___stm1c1 "__stm1c1" 1
  32  0083              #pragma debug variable 8 1 ___stm1al "__stm1al" 1
  32  0083              #pragma debug variable 8 1 ___stm1ah "__stm1ah" 1
  32  0083              #pragma debug struct_end
  32  0083              #pragma debug struct_end
  32  0083              #pragma debug union_end
  32  0083              #pragma debug union_end
  32  0083              #pragma debug variable 83 1 ___stm1rp "__stm1rp" 1
  32  0083              #pragma debug struct_end
  32  0083              #pragma debug struct_end
  32  0083              #pragma debug union_end
  32  0083              #pragma debug union_end
  32  0083              #pragma debug variable 85 1 ___stm2c0 "__stm2c0" 1
  32  0083              #pragma debug struct_end
  32  0083              #pragma debug struct_end
  32  0083              #pragma debug union_end
  32  0083              #pragma debug union_end
  32  0083              #pragma debug variable 87 1 ___stm2c1 "__stm2c1" 1
  32  0083              #pragma debug variable 8 1 ___stm2al "__stm2al" 1
  32  0083              #pragma debug variable 8 1 ___stm2ah "__stm2ah" 1
  32  0083              #pragma debug struct_end
  32  0083              #pragma debug struct_end
  32  0083              #pragma debug union_end
  32  0083              #pragma debug union_end
  32  0083              #pragma debug variable 89 1 ___stm2rp "__stm2rp" 1
  32  0083              #pragma debug struct_end
  32  0083              #pragma debug struct_end
  32  0083              #pragma debug union_end
  32  0083              #pragma debug union_end
  32  0083              #pragma debug variable 91 1 ___pcs0 "__pcs0" 1
  32  0083              #pragma debug struct_end
  32  0083              #pragma debug struct_end
  32  0083              #pragma debug union_end
  32  0083              #pragma debug union_end
  32  0083              #pragma debug variable 93 1 ___pcs1 "__pcs1" 1
  32  0083              #pragma debug struct_end
  32  0083              #pragma debug struct_end
  32  0083              #pragma debug union_end
  32  0083              #pragma debug union_end
  32  0083              #pragma debug variable 95 1 ___pds0 "__pds0" 1
  32  0083              #pragma debug struct_end
  32  0083              #pragma debug struct_end
  32  0083              #pragma debug union_end
  32  0083              #pragma debug union_end
  32  0083              #pragma debug variable 97 1 ___pfs1 "__pfs1" 1
  10  0083              #line 10 "D:\Wade\Project\Robot_Arm\Holtek_MCU\Program\Servo_test_v1\Servo_test_v1.c"
  10  0000              @code .section at 0 'code'
  10  0000  1F0B        	clr bp
  10  0001  2800     R  	jmp _main_startup1
  10  0002              
  10  0002              
  10  0002              ; 
  10  0002              ; Generated by holtek-gcc v3.19, Sun Dec 19 16:40:55 2021
  10  0002              ; Rebuild 718
  10  0002              ; end of file

"File: Servo_test_v1.c  Assembler  Version HGASM0202      Page 11


        0 Errors, 0