"File: Robot_Arm_Main_v6.c  Assembler  Version HGASM0202      Page 1


   1  0000              ; Generated by holtek-gcc v3.19, Wed Jan 12 12:29:25 2022
   2  0000              ; 
   3  0000              ; Configuration:
   4  0000              ;       with long instruction
   5  0000              ;       Multi-ROM, Multi-RAM
   6  0000              ;       bits_per_rom_unit:16
   7  0000              ;       with mp1
   8  0000              ;       with tbhp, address(0x9)
   9  0000              ;          Use tabrd-const
  10  0000              ;       
  11  0000              ; SFR address of long-instruction arch:
  12  0000              ;    mp0 = -1,1,0
  13  0000              ;    mp1 = 4,3,2
  14  0000              ;    mp2 = 14,13,12
  15  0000              ;    tbp = 9,7,8
  16  0000              ;    acc = 5
  17  0000              ;    pcl = 6
  18  0000              ;    status = 10
  19  0000              ;    bp = 11
  20  0000              ;    intc = 16
  21  0000              ;       
  22  0000              ;       
  23  0000              ; use 'tabrdc' instead of 'tabrd'
  24  0000              ;       
  25  0000              
  26  0000              #pragma translator "holtek-gcc 4.6.4" "3.19" "build 20130711"
  27  0000              ; Rebuild 718
  28  0000              
  29  0000              ir equ [2]
  30  0000              mp equ [3]
  31  0000              sbp equ [4]
  32  0000              acc equ [5]
  33  0000              bp equ [11]
  34  0000              tblp equ [7]
  35  0000              tbhp equ [9]
  36  0000              status equ [10]
  37  0000              c equ [10].0
  38  0000              ac equ [10].1
  39  0000              z equ [10].2
  40  0000              ov equ [10].3
  41  0000              cz equ [10].6
  42  0000              sc equ [10].7
  43  0000              intc equ [16]
  44  0000              mduwr0 equ [59h]
  45  0000              mduwr1 equ [5ah]
  46  0000              mduwr2 equ [5bh]
  47  0000              mduwr3 equ [5ch]
  48  0000              mduwr4 equ [5dh]
  49  0000              mduwr5 equ [5eh]
  50  0000              mduwrctrl equ [5fh]
  51  0000              
  52  0000              extern ra:byte
  53  0000              extern rb:byte
  54  0000              extern rc:byte
  55  0000              extern rd:byte
  56  0000              extern re:byte
  57  0000              extern rf:byte
  58  0000              extern rg:byte
  59  0000              extern rh:byte
"File: Robot_Arm_Main_v6.ASM  Assembler  Version HGASM0202      Page 2

  60  0000              extern _Crom2Prom:near
  61  0000              extern _Crom2PromNext:near
  62  0000              
  63  0000              RAMBANK 0 @BITDATASEC, @BITDATASEC1
  64  0000              @HCCINIT	.section 'data'
  65  0000              @HCCINIT0	.section 'data'
  66  0000              @BITDATASEC	 .section 'data'
  67  0000              @BITDATASEC1	 .section 'data'
  68  0000              
  69  0000              #pragma debug scope 1 1
  70  0000              	extern __DELAY3:near
  71  0000              	extern __DELAYX3:near
  72  0000              	extern __DELAYX6:near
  73  0000              	extern __DELAYY5:near
  74  0000              	extern __DELAYY3:near
  75  0000              	extern _builtin_holtek_delay_2:byte
  76  0000              ___pas1 equ [334]
  77  0000              ___u0cr1 equ [273]
  78  0000              ___u0cr2 equ [274]
  79  0000              ___brg0 equ [276]
  80  0000              ___mfi5 equ [56]
  81  0000              ___intc3 equ [19]
  82  0000              ___intc0 equ [16]
  83  0000              public _UART_Setup
  84  0000              #pragma debug scope 2 1

 189  0000              #line 189 "D:\Wade\Project\Robot_Arm\Holtek_MCU\Program\Robot_Arm_Main_v6\Robot_Arm_Main_v6.c"
 189  0000              _UART_Setup .section 'code'
 189  0000              _UART_Setup proc
 190  0000              #line 190 "D:\Wade\Project\Robot_Arm\Holtek_MCU\Program\Robot_Arm_Main_v6\Robot_Arm_Main_v6.c"
 190  0000  0FF0        	mov a,240
 190  0001  80CE 0001   	lmov [334],a
 191  0003              #line 191 "D:\Wade\Project\Robot_Arm\Holtek_MCU\Program\Robot_Arm_Main_v6\Robot_Arm_Main_v6.c"
 191  0003  0F80        	mov a,128
 191  0004  8091 0001   	lmov [273],a
 192  0006              #line 192 "D:\Wade\Project\Robot_Arm\Holtek_MCU\Program\Robot_Arm_Main_v6\Robot_Arm_Main_v6.c"
 192  0006  0F64        	mov a,100
 192  0007  8092 0001   	lmov [274],a
 193  0009              #line 193 "D:\Wade\Project\Robot_Arm\Holtek_MCU\Program\Robot_Arm_Main_v6\Robot_Arm_Main_v6.c"
 193  0009  0F19        	mov a,25
 193  000A  8094 0001   	lmov [276],a
 194  000C              #line 194 "D:\Wade\Project\Robot_Arm\Holtek_MCU\Program\Robot_Arm_Main_v6\Robot_Arm_Main_v6.c"
 194  000C  3038        	set [56].0
 195  000D              #line 195 "D:\Wade\Project\Robot_Arm\Holtek_MCU\Program\Robot_Arm_Main_v6\Robot_Arm_Main_v6.c"
 195  000D  3638        	clr [56].4
 196  000E              #line 196 "D:\Wade\Project\Robot_Arm\Holtek_MCU\Program\Robot_Arm_Main_v6\Robot_Arm_Main_v6.c"
 196  000E  3193        	set [19].3
 197  000F              #line 197 "D:\Wade\Project\Robot_Arm\Holtek_MCU\Program\Robot_Arm_Main_v6\Robot_Arm_Main_v6.c"
 197  000F  3010        	set [16].0
 197  0010  0003        	ret
 197  0011              _UART_Setup endp
 197  0011              #line 197 "D:\Wade\Project\Robot_Arm\Holtek_MCU\Program\Robot_Arm_Main_v6\Robot_Arm_Main_v6.c"
 197  0011              #pragma debug scope 1 1
 197  0011              ___u0sr equ [272]
 197  0011              ___txr_rxr0 equ [275]
 197  0011              public _Read_Data
 197  0011              #pragma debug scope 3 1
 201  0011              #line 201 "D:\Wade\Project\Robot_Arm\Holtek_MCU\Program\Robot_Arm_Main_v6\Robot_Arm_Main_v6.c"
 201  0000              _Read_Data .section 'code'
 201  0000              _Read_Data proc
"File: Robot_Arm_Main_v6.c  Assembler  Version HGASM0202      Page 3

 201  0000              _L4:
 202  0000              #line 202 "D:\Wade\Project\Robot_Arm\Holtek_MCU\Program\Robot_Arm_Main_v6\Robot_Arm_Main_v6.c"
 202  0000  B990 0001   	lsnz [272].3
 202  0002  2800     R  	jmp _L4
 203  0003              #line 203 "D:\Wade\Project\Robot_Arm\Holtek_MCU\Program\Robot_Arm_Main_v6\Robot_Arm_Main_v6.c"
 203  0003  0700     R  	mov a,_kn[0]
 203  0004  0080     E  	mov rb,a
 203  0005  0700     R  	mov a,_kn[1]
 203  0006  0080     E  	mov rc,a
 203  0007  8713 0001   	lmov a,[275]
 203  0009  0080     E  	mov ra,a
 203  000A  0F00     R  	mov a,low offset _R_Data
 203  000B  0300     E  	add a,rb
 203  000C  0083        	mov mp,a
 203  000D  0F00     R  	mov a,high offset _R_Data
 203  000E  1300     E  	adc a,rc
 203  000F  0084        	mov sbp,a
 203  0010  0700     E  	mov a,ra
 203  0011  0082        	mov ir,a
 204  0012              #line 204 "D:\Wade\Project\Robot_Arm\Holtek_MCU\Program\Robot_Arm_Main_v6\Robot_Arm_Main_v6.c"
 204  0012  0700     E  	mov a,ra
 204  0013  0A2F        	sub a,47
 204  0014  3D0A        	sz z
 204  0015  2800     R  	jmp _L5
 204  0016  0F09        	mov a,9
 204  0017  0200     E  	sub a,rb
 204  0018  0F00        	mov a,0
 204  0019  1200     E  	sbc a,rc
 204  001A  3C0A        	sz c
 204  001B  2800     R  	jmp _L6
 204  001C              _L5:
 204  001C  1F00     R  	clr _kn[0]
 204  001D  1F00     R  	clr _kn[1]
 204  001E  2800     R  	jmp _L2
 204  001F              _L6:
 205  001F              #line 205 "D:\Wade\Project\Robot_Arm\Holtek_MCU\Program\Robot_Arm_Main_v6\Robot_Arm_Main_v6.c"
 205  001F  0F01        	mov a,1
 205  0020  0300     E  	add a,rb
 205  0021  0080     R  	mov _kn[0],a
 205  0022  0F00        	mov a,0
 205  0023  1300     E  	adc a,rc
 205  0024  0080     R  	mov _kn[1],a
 205  0025              _L2:
 205  0025  0003        	ret
 205  0026              _Read_Data endp
 205  0026              #line 205 "D:\Wade\Project\Robot_Arm\Holtek_MCU\Program\Robot_Arm_Main_v6\Robot_Arm_Main_v6.c"
 205  0026              #pragma debug scope 1 1
 205  0026              ___pg equ [39]
 205  0026              public _Uart_R
 205  0026              #pragma debug scope 4 1
 181  0026              #line 181 "D:\Wade\Project\Robot_Arm\Holtek_MCU\Program\Robot_Arm_Main_v6\Robot_Arm_Main_v6.c"
 181  0026              rombank 0 @Uart_R_code
 181  0000              @Uart_R_code .section at 60 'code'
 181  0000  0080     E  	mov r1,a
 181  0001  070B        	mov a,bp
 181  0002  1F0B        	clr bp
 181  0003  2800     R  	jmp _Uart_R
 181  0004              ROMBANK 0 _Uart_R
 181  0004              #pragma debug scope 1 1
 181  0004              @dummy60 endp
"File: Robot_Arm_Main_v6.c  Assembler  Version HGASM0202      Page 4

 181  0004              #pragma debug scope 5 1
 181  0000              _Uart_R .section 'code'
 181  0000              _Uart_R proc
 181  0000  0080     E  	mov r2,a
 181  0001  070A        	mov a, status
 181  0002  0080     E  	mov r3,a
 181  0003  0703        	mov a,mp
 181  0004  0080     E  	mov r4,a
 181  0005  0704        	mov a,sbp
 181  0006  0080     E  	mov r5,a
 181  0007  0707        	mov a,tblp
 181  0008  0080     E  	mov r6,a
 181  0009  0709        	mov a,tbhp
 181  000A  0080     E  	mov r7,a
 182  000B              #line 182 "D:\Wade\Project\Robot_Arm\Holtek_MCU\Program\Robot_Arm_Main_v6\Robot_Arm_Main_v6.c"
 182  000B  3427        	clr [39].0
 183  000C              #line 183 "D:\Wade\Project\Robot_Arm\Holtek_MCU\Program\Robot_Arm_Main_v6\Robot_Arm_Main_v6.c"
 183  000C              	fcall _Read_Data
 184  0013              #line 184 "D:\Wade\Project\Robot_Arm\Holtek_MCU\Program\Robot_Arm_Main_v6\Robot_Arm_Main_v6.c"
 184  0013  3638        	clr [56].4
 185  0014              #line 185 "D:\Wade\Project\Robot_Arm\Holtek_MCU\Program\Robot_Arm_Main_v6\Robot_Arm_Main_v6.c"
 185  0014  3027        	set [39].0
 185  0015  0700     E  	mov a,r2
 185  0016  008B        	mov bp,a
 185  0017  0700     E  	mov a,r3
 185  0018  008A        	mov status,a
 185  0019  0700     E  	mov a,r4
 185  001A  0083        	mov mp,a
 185  001B  0700     E  	mov a,r5
 185  001C  0084        	mov sbp,a
 185  001D  0700     E  	mov a,r6
 185  001E  0087        	mov tblp,a
 185  001F  0700     E  	mov a,r7
 185  0020  0089        	mov tbhp,a
 185  0021  1D05        	tabrdc acc
 185  0022  0700     E  	mov a,r1
 185  0023  0004        	reti
 185  0024              _Uart_R endp
 185  0024              
 185  0024              #line 185 "D:\Wade\Project\Robot_Arm\Holtek_MCU\Program\Robot_Arm_Main_v6\Robot_Arm_Main_v6.c"
 185  0024              #pragma debug scope 1 1
 185  0024              ___stm0c0 equ [78]
 185  0024              ___stm0c1 equ [79]
 185  0024              ___stm0rp equ [84]
 185  0024              ___stm1c0 equ [306]
 185  0024              ___stm1c1 equ [307]
 185  0024              ___stm1rp equ [312]
 185  0024              ___stm2c0 equ [313]
 185  0024              ___stm2c1 equ [314]
 185  0024              ___stm2rp equ [319]
 185  0024              ___ptm0c0 equ [70]
 185  0024              ___ptm0c1 equ [71]
 185  0024              ___ptm0rpl equ [76]
 185  0024              ___ptm0rph equ [77]
 185  0024              ___ptm1c0 equ [282]
 185  0024              ___ptm1c1 equ [283]
 185  0024              ___ptm1rpl equ [288]
 185  0024              ___ptm1rph equ [289]
 185  0024              ___ptm2c0 equ [290]
 185  0024              ___ptm2c1 equ [291]
"File: Robot_Arm_Main_v6.c  Assembler  Version HGASM0202      Page 5

 185  0024              ___ptm2rpl equ [296]
 185  0024              ___ptm2rph equ [297]
 185  0024              public _timer_setup
 185  0024              #pragma debug scope 6 1
 209  0024              #line 209 "D:\Wade\Project\Robot_Arm\Holtek_MCU\Program\Robot_Arm_Main_v6\Robot_Arm_Main_v6.c"
 209  0000              _timer_setup .section 'code'
 209  0000              _timer_setup proc
 210  0000              #line 210 "D:\Wade\Project\Robot_Arm\Holtek_MCU\Program\Robot_Arm_Main_v6\Robot_Arm_Main_v6.c"
 210  0000  0F30        	mov a,48
 210  0001  00CE        	mov [78],a
 211  0002              #line 211 "D:\Wade\Project\Robot_Arm\Holtek_MCU\Program\Robot_Arm_Main_v6\Robot_Arm_Main_v6.c"
 211  0002  0FA8        	mov a,168
 211  0003  00CF        	mov [79],a
 212  0004              #line 212 "D:\Wade\Project\Robot_Arm\Holtek_MCU\Program\Robot_Arm_Main_v6\Robot_Arm_Main_v6.c"
 212  0004  0F14        	mov a,20
 212  0005  00D4        	mov [84],a
 214  0006              #line 214 "D:\Wade\Project\Robot_Arm\Holtek_MCU\Program\Robot_Arm_Main_v6\Robot_Arm_Main_v6.c"
 214  0006  0F30        	mov a,48
 214  0007  80B2 0001   	lmov [306],a
 215  0009              #line 215 "D:\Wade\Project\Robot_Arm\Holtek_MCU\Program\Robot_Arm_Main_v6\Robot_Arm_Main_v6.c"
 215  0009  0FA8        	mov a,168
 215  000A  80B3 0001   	lmov [307],a
 216  000C              #line 216 "D:\Wade\Project\Robot_Arm\Holtek_MCU\Program\Robot_Arm_Main_v6\Robot_Arm_Main_v6.c"
 216  000C  0F14        	mov a,20
 216  000D  80B8 0001   	lmov [312],a
 218  000F              #line 218 "D:\Wade\Project\Robot_Arm\Holtek_MCU\Program\Robot_Arm_Main_v6\Robot_Arm_Main_v6.c"
 218  000F  0F30        	mov a,48
 218  0010  80B9 0001   	lmov [313],a
 219  0012              #line 219 "D:\Wade\Project\Robot_Arm\Holtek_MCU\Program\Robot_Arm_Main_v6\Robot_Arm_Main_v6.c"
 219  0012  0FA8        	mov a,168
 219  0013  80BA 0001   	lmov [314],a
 220  0015              #line 220 "D:\Wade\Project\Robot_Arm\Holtek_MCU\Program\Robot_Arm_Main_v6\Robot_Arm_Main_v6.c"
 220  0015  0F14        	mov a,20
 220  0016  80BF 0001   	lmov [319],a
 222  0018              #line 222 "D:\Wade\Project\Robot_Arm\Holtek_MCU\Program\Robot_Arm_Main_v6\Robot_Arm_Main_v6.c"
 222  0018  0F30        	mov a,48
 222  0019  00C6        	mov [70],a
 223  001A              #line 223 "D:\Wade\Project\Robot_Arm\Holtek_MCU\Program\Robot_Arm_Main_v6\Robot_Arm_Main_v6.c"
 223  001A  0FA8        	mov a,168
 223  001B  00C7        	mov [71],a
 224  001C              #line 224 "D:\Wade\Project\Robot_Arm\Holtek_MCU\Program\Robot_Arm_Main_v6\Robot_Arm_Main_v6.c"
 224  001C  1F4C        	clr [76]
 224  001D  0F14        	mov a,20
 224  001E  00CD        	mov [77],a
 226  001F              #line 226 "D:\Wade\Project\Robot_Arm\Holtek_MCU\Program\Robot_Arm_Main_v6\Robot_Arm_Main_v6.c"
 226  001F  0F30        	mov a,48
 226  0020  809A 0001   	lmov [282],a
 227  0022              #line 227 "D:\Wade\Project\Robot_Arm\Holtek_MCU\Program\Robot_Arm_Main_v6\Robot_Arm_Main_v6.c"
 227  0022  0FA8        	mov a,168
 227  0023  809B 0001   	lmov [283],a
 228  0025              #line 228 "D:\Wade\Project\Robot_Arm\Holtek_MCU\Program\Robot_Arm_Main_v6\Robot_Arm_Main_v6.c"
 228  0025  9F20 0001   	lclr [288]
 228  0027  0F14        	mov a,20
 228  0028  80A1 0001   	lmov [289],a
 230  002A              #line 230 "D:\Wade\Project\Robot_Arm\Holtek_MCU\Program\Robot_Arm_Main_v6\Robot_Arm_Main_v6.c"
 230  002A  0F30        	mov a,48
 230  002B  80A2 0001   	lmov [290],a
 231  002D              #line 231 "D:\Wade\Project\Robot_Arm\Holtek_MCU\Program\Robot_Arm_Main_v6\Robot_Arm_Main_v6.c"
 231  002D  0FA8        	mov a,168
 231  002E  80A3 0001   	lmov [291],a
"File: Robot_Arm_Main_v6.c  Assembler  Version HGASM0202      Page 6

 232  0030              #line 232 "D:\Wade\Project\Robot_Arm\Holtek_MCU\Program\Robot_Arm_Main_v6\Robot_Arm_Main_v6.c"
 232  0030  9F28 0001   	lclr [296]
 232  0032  0F1E        	mov a,30
 232  0033  80A9 0001   	lmov [297],a
 232  0035  0003        	ret
 232  0036              _timer_setup endp
 232  0036              #line 232 "D:\Wade\Project\Robot_Arm\Holtek_MCU\Program\Robot_Arm_Main_v6\Robot_Arm_Main_v6.c"
 232  0036              #pragma debug scope 1 1
 232  0036              ___pcs1 equ [338]
 232  0036              ___pds0 equ [339]
 232  0036              ___pfs1 equ [344]
 232  0036              ___pcs0 equ [337]
 232  0036              ___stm0al equ [82]
 232  0036              ___stm0ah equ [83]
 232  0036              ___stm1al equ [310]
 232  0036              ___stm1ah equ [311]
 232  0036              ___stm2al equ [317]
 232  0036              ___stm2ah equ [318]
 232  0036              ___ptm0al equ [74]
 232  0036              ___ptm0ah equ [75]
 232  0036              ___ptm1al equ [286]
 232  0036              ___ptm1ah equ [287]
 232  0036              ___ptm2al equ [294]
 232  0036              ___ptm2ah equ [295]
 232  0036              public _servo_setup
 232  0036              #pragma debug scope 7 1
 236  0036              #line 236 "D:\Wade\Project\Robot_Arm\Holtek_MCU\Program\Robot_Arm_Main_v6\Robot_Arm_Main_v6.c"
 236  0000              _servo_setup .section 'code'
 236  0000              _servo_setup proc
 237  0000              #line 237 "D:\Wade\Project\Robot_Arm\Holtek_MCU\Program\Robot_Arm_Main_v6\Robot_Arm_Main_v6.c"
 237  0000              	fcall _timer_setup
 238  0007              #line 238 "D:\Wade\Project\Robot_Arm\Holtek_MCU\Program\Robot_Arm_Main_v6\Robot_Arm_Main_v6.c"
 238  0007  0F22        	mov a,34
 238  0008  80D2 0001   	lmov [338],a
 239  000A              #line 239 "D:\Wade\Project\Robot_Arm\Holtek_MCU\Program\Robot_Arm_Main_v6\Robot_Arm_Main_v6.c"
 239  000A  0F12        	mov a,18
 239  000B  80D3 0001   	lmov [339],a
 240  000D              #line 240 "D:\Wade\Project\Robot_Arm\Holtek_MCU\Program\Robot_Arm_Main_v6\Robot_Arm_Main_v6.c"
 240  000D  0F80        	mov a,128
 240  000E  80D8 0001   	lmov [344],a
 241  0010              #line 241 "D:\Wade\Project\Robot_Arm\Holtek_MCU\Program\Robot_Arm_Main_v6\Robot_Arm_Main_v6.c"
 241  0010  0F20        	mov a,32
 241  0011  80D1 0001   	lmov [337],a
 243  0013              #line 243 "D:\Wade\Project\Robot_Arm\Holtek_MCU\Program\Robot_Arm_Main_v6\Robot_Arm_Main_v6.c"
 243  0013  31CE        	set [78].3
 243  0014  1F52        	clr [82]
 243  0015  0F01        	mov a,1
 243  0016  00D3        	mov [83],a
 244  0017              #line 244 "D:\Wade\Project\Robot_Arm\Holtek_MCU\Program\Robot_Arm_Main_v6\Robot_Arm_Main_v6.c"
 244  0017  B1B2 0001   	lset [306].3
 244  0019  9F36 0001   	lclr [310]
 244  001B  0F01        	mov a,1
 244  001C  80B7 0001   	lmov [311],a
 245  001E              #line 245 "D:\Wade\Project\Robot_Arm\Holtek_MCU\Program\Robot_Arm_Main_v6\Robot_Arm_Main_v6.c"
 245  001E  B1B9 0001   	lset [313].3
 245  0020  9F3D 0001   	lclr [317]
 245  0022  0F01        	mov a,1
 245  0023  80BE 0001   	lmov [318],a
 246  0025              #line 246 "D:\Wade\Project\Robot_Arm\Holtek_MCU\Program\Robot_Arm_Main_v6\Robot_Arm_Main_v6.c"
 246  0025  31C6        	set [70].3
"File: Robot_Arm_Main_v6.c  Assembler  Version HGASM0202      Page 7

 246  0026  1F4A        	clr [74]
 246  0027  0F01        	mov a,1
 246  0028  00CB        	mov [75],a
 247  0029              #line 247 "D:\Wade\Project\Robot_Arm\Holtek_MCU\Program\Robot_Arm_Main_v6\Robot_Arm_Main_v6.c"
 247  0029  B19A 0001   	lset [282].3
 247  002B  9F1E 0001   	lclr [286]
 247  002D  0F01        	mov a,1
 247  002E  809F 0001   	lmov [287],a
 248  0030              #line 248 "D:\Wade\Project\Robot_Arm\Holtek_MCU\Program\Robot_Arm_Main_v6\Robot_Arm_Main_v6.c"
 248  0030  B1A2 0001   	lset [290].3
 248  0032  0F0A        	mov a,10
 248  0033  80A6 0001   	lmov [294],a
 248  0035  0F01        	mov a,1
 248  0036  80A7 0001   	lmov [295],a
 248  0038  0003        	ret
 248  0039              _servo_setup endp
 248  0039              #line 248 "D:\Wade\Project\Robot_Arm\Holtek_MCU\Program\Robot_Arm_Main_v6\Robot_Arm_Main_v6.c"
 248  0039              #pragma debug scope 1 1
 248  0039              ___ptm3c0 equ [298]
 248  0039              ___ptm3c1 equ [299]
 248  0039              ___mfi4 equ [55]
 248  0039              public _ptm_setup
 248  0039              #pragma debug scope 8 1
 252  0039              #line 252 "D:\Wade\Project\Robot_Arm\Holtek_MCU\Program\Robot_Arm_Main_v6\Robot_Arm_Main_v6.c"
 252  0000              _ptm_setup .section 'code'
 252  0000              _ptm_setup proc
 253  0000              #line 253 "D:\Wade\Project\Robot_Arm\Holtek_MCU\Program\Robot_Arm_Main_v6\Robot_Arm_Main_v6.c"
 253  0000  9F2A 0001   	lclr [298]
 254  0002              #line 254 "D:\Wade\Project\Robot_Arm\Holtek_MCU\Program\Robot_Arm_Main_v6\Robot_Arm_Main_v6.c"
 254  0002  0FC1        	mov a,193
 254  0003  80AB 0001   	lmov [299],a
 255  0005              #line 255 "D:\Wade\Project\Robot_Arm\Holtek_MCU\Program\Robot_Arm_Main_v6\Robot_Arm_Main_v6.c"
 255  0005  30B7        	set [55].1
 256  0006              #line 256 "D:\Wade\Project\Robot_Arm\Holtek_MCU\Program\Robot_Arm_Main_v6\Robot_Arm_Main_v6.c"
 256  0006  36B7        	clr [55].5
 256  0007  0003        	ret
 256  0008              _ptm_setup endp
 256  0008              #line 256 "D:\Wade\Project\Robot_Arm\Holtek_MCU\Program\Robot_Arm_Main_v6\Robot_Arm_Main_v6.c"
 256  0008              #pragma debug scope 1 1
 256  0008              ___ptm3al equ [302]
 256  0008              ___ptm3ah equ [303]
 256  0008              public _ptm_delay
 256  0008              #pragma debug scope 9 1
 260  0008              #line 260 "D:\Wade\Project\Robot_Arm\Holtek_MCU\Program\Robot_Arm_Main_v6\Robot_Arm_Main_v6.c"
 260  0000              _ptm_delay .section 'code'
 260  0000              _ptm_delay proc
 260  0000              public _ptm_delay_2
 260  0000  0002[           local _ptm_delay_2 db 2 dup(?)	; 2,0
            00
            ]
 260  0002              #pragma debug variable 12 9 _ptm_delay_2+0 "tm"
 261  0002              #line 261 "D:\Wade\Project\Robot_Arm\Holtek_MCU\Program\Robot_Arm_Main_v6\Robot_Arm_Main_v6.c"
 261  0000  0700     R  	mov a,_ptm_delay_2[0]
 261  0001  80AE 0001   	lmov [302],a
 262  0003              #line 262 "D:\Wade\Project\Robot_Arm\Holtek_MCU\Program\Robot_Arm_Main_v6\Robot_Arm_Main_v6.c"
 262  0003  0700     R  	mov a,_ptm_delay_2[1]
 262  0004  80AF 0001   	lmov [303],a
 264  0006              #line 264 "D:\Wade\Project\Robot_Arm\Holtek_MCU\Program\Robot_Arm_Main_v6\Robot_Arm_Main_v6.c"
 264  0006  B1AA 0001   	lset [298].3
 264  0008              _L18:
"File: Robot_Arm_Main_v6.c  Assembler  Version HGASM0202      Page 8

 265  0008              #line 265 "D:\Wade\Project\Robot_Arm\Holtek_MCU\Program\Robot_Arm_Main_v6\Robot_Arm_Main_v6.c"
 265  0008  3AB7        	snz [55].5
 265  0009  2800     R  	jmp _L18
 266  000A              #line 266 "D:\Wade\Project\Robot_Arm\Holtek_MCU\Program\Robot_Arm_Main_v6\Robot_Arm_Main_v6.c"
 266  000A  B5AA 0001   	lclr [298].3
 267  000C              #line 267 "D:\Wade\Project\Robot_Arm\Holtek_MCU\Program\Robot_Arm_Main_v6\Robot_Arm_Main_v6.c"
 267  000C  36B7        	clr [55].5
 267  000D  0003        	ret
 267  000E              _ptm_delay endp
 267  000E              #line 267 "D:\Wade\Project\Robot_Arm\Holtek_MCU\Program\Robot_Arm_Main_v6\Robot_Arm_Main_v6.c"
 267  000E              #pragma debug scope 1 1
 267  000E              ___pd equ [30]
 267  000E              public _motor_callb
 267  000E              #pragma debug scope 10 1
 271  000E              #line 271 "D:\Wade\Project\Robot_Arm\Holtek_MCU\Program\Robot_Arm_Main_v6\Robot_Arm_Main_v6.c"
 271  0000              _motor_callb .section 'code'
 271  0000              _motor_callb proc
 272  0000              #line 272 "D:\Wade\Project\Robot_Arm\Holtek_MCU\Program\Robot_Arm_Main_v6\Robot_Arm_Main_v6.c"
 272  0000  369E        	clr [30].5
 273  0001              #line 273 "D:\Wade\Project\Robot_Arm\Holtek_MCU\Program\Robot_Arm_Main_v6\Robot_Arm_Main_v6.c"
 273  0001  361E        	clr [30].4
 274  0002              #line 274 "D:\Wade\Project\Robot_Arm\Holtek_MCU\Program\Robot_Arm_Main_v6\Robot_Arm_Main_v6.c"
 274  0002  2800     R  	jmp _L20
 274  0003              _L21:
 276  0003              #line 276 "D:\Wade\Project\Robot_Arm\Holtek_MCU\Program\Robot_Arm_Main_v6\Robot_Arm_Main_v6.c"
 276  0003  359E        	clr [30].3
 277  0004              #line 277 "D:\Wade\Project\Robot_Arm\Holtek_MCU\Program\Robot_Arm_Main_v6\Robot_Arm_Main_v6.c"
 277  0004  0F20        	mov a,32
 277  0005  0080     R  	mov _ptm_delay_2[0],a
 277  0006  0F03        	mov a,3
 277  0007  0080     R  	mov _ptm_delay_2[1],a
 277  0008              	fcall _ptm_delay
 278  000F              #line 278 "D:\Wade\Project\Robot_Arm\Holtek_MCU\Program\Robot_Arm_Main_v6\Robot_Arm_Main_v6.c"
 278  000F  319E        	set [30].3
 279  0010              #line 279 "D:\Wade\Project\Robot_Arm\Holtek_MCU\Program\Robot_Arm_Main_v6\Robot_Arm_Main_v6.c"
 279  0010  0F20        	mov a,32
 279  0011  0080     R  	mov _ptm_delay_2[0],a
 279  0012  0F03        	mov a,3
 279  0013  0080     R  	mov _ptm_delay_2[1],a
 279  0014              	fcall _ptm_delay
 279  001B              _L20:
 274  001B              #line 274 "D:\Wade\Project\Robot_Arm\Holtek_MCU\Program\Robot_Arm_Main_v6\Robot_Arm_Main_v6.c"
 274  001B  3F1E        	sz [30].6
 274  001C  2800     R  	jmp _L21
 274  001D  0003        	ret
 274  001E              _motor_callb endp
 274  001E              #line 274 "D:\Wade\Project\Robot_Arm\Holtek_MCU\Program\Robot_Arm_Main_v6\Robot_Arm_Main_v6.c"
 274  001E              #pragma debug scope 1 1
 274  001E              public _motor_deg
 274  001E              #pragma debug scope 11 1
 284  001E              #line 284 "D:\Wade\Project\Robot_Arm\Holtek_MCU\Program\Robot_Arm_Main_v6\Robot_Arm_Main_v6.c"
 284  0000              _motor_deg .section 'code'
 284  0000              _motor_deg proc
 284  0000              public _motor_deg_2
 284  0000  0007[           local _motor_deg_2 db 7 dup(?)	; 4,3
            00
            ]
 284  0007              #pragma debug variable 10 11 _motor_deg_2+0 "deg"
 284  0007              #pragma debug variable 12 11 _motor_deg_2+2 "time"
 284  0007              #pragma debug variable 10 11 _motor_deg_2+4 "j"
"File: Robot_Arm_Main_v6.c  Assembler  Version HGASM0202      Page 9

 286  0007              #line 286 "D:\Wade\Project\Robot_Arm\Holtek_MCU\Program\Robot_Arm_Main_v6\Robot_Arm_Main_v6.c"
 286  0000  1F00     R  	clr _motor_deg_2[4]
 286  0001  1F00     R  	clr _motor_deg_2[5]
 286  0002              _L23:
 286  0002              #line 286 "D:\Wade\Project\Robot_Arm\Holtek_MCU\Program\Robot_Arm_Main_v6\Robot_Arm_Main_v6.c"
 286  0002  0700     R  	mov a,_motor_deg_2[4]
 286  0003  0200     R  	sub a,_motor_deg_2[0]
 286  0004  0700     R  	mov a,_motor_deg_2[5]
 286  0005  1200     R  	sbc a,_motor_deg_2[1]
 286  0006  3F0A        	sz cz
 286  0007  2800     R  	jmp _L22
 286  0008  1F00     R  	clr _motor_deg_2[6]
 286  0009              _L26:
 290  0009              #line 290 "D:\Wade\Project\Robot_Arm\Holtek_MCU\Program\Robot_Arm_Main_v6\Robot_Arm_Main_v6.c"
 290  0009  359E        	clr [30].3
 291  000A              #line 291 "D:\Wade\Project\Robot_Arm\Holtek_MCU\Program\Robot_Arm_Main_v6\Robot_Arm_Main_v6.c"
 291  000A  0700     R  	mov a,_motor_deg_2[2]
 291  000B  0080     R  	mov _ptm_delay_2[0],a
 291  000C  0700     R  	mov a,_motor_deg_2[3]
 291  000D  0080     R  	mov _ptm_delay_2[1],a
 291  000E              	fcall _ptm_delay
 292  0015              #line 292 "D:\Wade\Project\Robot_Arm\Holtek_MCU\Program\Robot_Arm_Main_v6\Robot_Arm_Main_v6.c"
 292  0015  319E        	set [30].3
 293  0016              #line 293 "D:\Wade\Project\Robot_Arm\Holtek_MCU\Program\Robot_Arm_Main_v6\Robot_Arm_Main_v6.c"
 293  0016  0700     R  	mov a,_motor_deg_2[2]
 293  0017  0080     R  	mov _ptm_delay_2[0],a
 293  0018  0700     R  	mov a,_motor_deg_2[3]
 293  0019  0080     R  	mov _ptm_delay_2[1],a
 293  001A              	fcall _ptm_delay
 293  0021  1480     R  	inc _motor_deg_2[6]
 288  0022              #line 288 "D:\Wade\Project\Robot_Arm\Holtek_MCU\Program\Robot_Arm_Main_v6\Robot_Arm_Main_v6.c"
 288  0022  0700     R  	mov a,_motor_deg_2[6]
 288  0023  0A09        	sub a,9
 288  0024  390A        	snz z
 288  0025  2800     R  	jmp _L26
 286  0026              #line 286 "D:\Wade\Project\Robot_Arm\Holtek_MCU\Program\Robot_Arm_Main_v6\Robot_Arm_Main_v6.c"
 286  0026  1480     R  	inc _motor_deg_2[4]
 286  0027  3D0A        	sz z
 286  0028  1480     R  	inc _motor_deg_2[5]
 286  0029  2800     R  	jmp _L23
 286  002A              _L22:
 286  002A  0003        	ret
 286  002B              _motor_deg endp
 286  002B              #line 286 "D:\Wade\Project\Robot_Arm\Holtek_MCU\Program\Robot_Arm_Main_v6\Robot_Arm_Main_v6.c"
 286  002B              #pragma debug scope 1 1
 286  002B              public _delay
 286  002B              #pragma debug scope 12 1
 299  002B              #line 299 "D:\Wade\Project\Robot_Arm\Holtek_MCU\Program\Robot_Arm_Main_v6\Robot_Arm_Main_v6.c"
 299  0000              _delay .section 'code'
 299  0000              _delay proc
 299  0000              public _delay_2
 299  0000  0002[           local _delay_2 db 2 dup(?)	; 2,0
            00
            ]
 299  0002              #pragma debug variable 10 12 _delay_2+0 "var"
 301  0002              #line 301 "D:\Wade\Project\Robot_Arm\Holtek_MCU\Program\Robot_Arm_Main_v6\Robot_Arm_Main_v6.c"
 301  0000  1F00     E  	clr rb
 301  0001  1F00     E  	clr rc
 301  0002              _L28:
 301  0002              #line 301 "D:\Wade\Project\Robot_Arm\Holtek_MCU\Program\Robot_Arm_Main_v6\Robot_Arm_Main_v6.c"
"File: Robot_Arm_Main_v6.c  Assembler  Version HGASM0202      Page 10

 301  0002  0700     E  	mov a,rb
 301  0003  0200     R  	sub a,_delay_2[0]
 301  0004  0700     E  	mov a,rc
 301  0005  1200     R  	sbc a,_delay_2[1]
 301  0006  3F0A        	sz cz
 301  0007  2800     R  	jmp _L27
 301  0008  1F00     E  	clr ra
 301  0009              _L31:
 303  0009              #line 303 "D:\Wade\Project\Robot_Arm\Holtek_MCU\Program\Robot_Arm_Main_v6\Robot_Arm_Main_v6.c"
 303  0009              ;# 303 "D:\Wade\Project\Robot_Arm\Holtek_MCU\Program\Robot_Arm_Main_v6\Robot_Arm_Main_v6.c" 1
 303  0009  0000        	nop
 303  000A  1480     E  	inc ra
 302  000B              #line 302 "D:\Wade\Project\Robot_Arm\Holtek_MCU\Program\Robot_Arm_Main_v6\Robot_Arm_Main_v6.c"
 302  000B  0700     E  	mov a,ra
 302  000C  0A19        	sub a,25
 302  000D  390A        	snz z
 302  000E  2800     R  	jmp _L31
 301  000F              #line 301 "D:\Wade\Project\Robot_Arm\Holtek_MCU\Program\Robot_Arm_Main_v6\Robot_Arm_Main_v6.c"
 301  000F  1480     E  	inc rb
 301  0010  3D0A        	sz z
 301  0011  1480     E  	inc rc
 301  0012  2800     R  	jmp _L28
 301  0013              _L27:
 301  0013  0003        	ret
 301  0014              _delay endp
 301  0014              #line 301 "D:\Wade\Project\Robot_Arm\Holtek_MCU\Program\Robot_Arm_Main_v6\Robot_Arm_Main_v6.c"
 301  0014              #pragma debug scope 1 1
 301  0014              ___wdtc equ [62]
 301  0014              ___scc equ [58]
 301  0014              ___hircc equ [59]
 301  0014              ___pdc equ [31]
 301  0014              ___pdpu equ [32]
 301  0014              ___pgc equ [40]
 301  0014              public _main
 301  0014              #pragma debug scope 13 1
  48  0014              #line 48 "D:\Wade\Project\Robot_Arm\Holtek_MCU\Program\Robot_Arm_Main_v6\Robot_Arm_Main_v6.c"
  48  0014              IFDEF WITH_DEFAULT_STARTUP
  48  0014              extern _main_initial0:near
  48  0014              extern _main_startup:near
  48  0014              ENDIF
  48  0014              
  48  0014              ROMBANK 0 @start
  48  0000              @start .section com_l 'code'
  48  0000              _main_startup1:
  48  0000              @start .section com_e 'code'
  48  0000  0F00     R  	mov a,bank _main
  48  0001  008B        	mov bp,a
  48  0002  2800     R  	jmp _main
  48  0003              
  48  0000              _main .section 'code'
  48  0000              _main proc
  48  0000  00              local _main_2 db 1 dup(?)
  49  0001              #line 49 "D:\Wade\Project\Robot_Arm\Holtek_MCU\Program\Robot_Arm_Main_v6\Robot_Arm_Main_v6.c"
  49  0000  0FAB        	mov a,171
  49  0001  00BE        	mov [62],a
  51  0002              #line 51 "D:\Wade\Project\Robot_Arm\Holtek_MCU\Program\Robot_Arm_Main_v6\Robot_Arm_Main_v6.c"
  51  0002  0F01        	mov a,1
  51  0003  00BA        	mov [58],a
  52  0004              #line 52 "D:\Wade\Project\Robot_Arm\Holtek_MCU\Program\Robot_Arm_Main_v6\Robot_Arm_Main_v6.c"
  52  0004  0F0B        	mov a,11
"File: Robot_Arm_Main_v6.c  Assembler  Version HGASM0202      Page 11

  52  0005  00BB        	mov [59],a
  55  0006              #line 55 "D:\Wade\Project\Robot_Arm\Holtek_MCU\Program\Robot_Arm_Main_v6\Robot_Arm_Main_v6.c"
  55  0006              	fcall _UART_Setup
  58  000D              #line 58 "D:\Wade\Project\Robot_Arm\Holtek_MCU\Program\Robot_Arm_Main_v6\Robot_Arm_Main_v6.c"
  58  000D              	fcall _servo_setup
  61  0014              #line 61 "D:\Wade\Project\Robot_Arm\Holtek_MCU\Program\Robot_Arm_Main_v6\Robot_Arm_Main_v6.c"
  61  0014              	fcall _ptm_setup
  63  001B              #line 63 "D:\Wade\Project\Robot_Arm\Holtek_MCU\Program\Robot_Arm_Main_v6\Robot_Arm_Main_v6.c"
  63  001B  361F        	clr [31].4
  64  001C              #line 64 "D:\Wade\Project\Robot_Arm\Holtek_MCU\Program\Robot_Arm_Main_v6\Robot_Arm_Main_v6.c"
  64  001C  369F        	clr [31].5
  65  001D              #line 65 "D:\Wade\Project\Robot_Arm\Holtek_MCU\Program\Robot_Arm_Main_v6\Robot_Arm_Main_v6.c"
  65  001D  359F        	clr [31].3
  66  001E              #line 66 "D:\Wade\Project\Robot_Arm\Holtek_MCU\Program\Robot_Arm_Main_v6\Robot_Arm_Main_v6.c"
  66  001E  331F        	set [31].6
  67  001F              #line 67 "D:\Wade\Project\Robot_Arm\Holtek_MCU\Program\Robot_Arm_Main_v6\Robot_Arm_Main_v6.c"
  67  001F  3320        	set [32].6
  70  0020              #line 70 "D:\Wade\Project\Robot_Arm\Holtek_MCU\Program\Robot_Arm_Main_v6\Robot_Arm_Main_v6.c"
  70  0020              	fcall _motor_callb
  71  0027              #line 71 "D:\Wade\Project\Robot_Arm\Holtek_MCU\Program\Robot_Arm_Main_v6\Robot_Arm_Main_v6.c"
  71  0027  321E        	set [30].4
  72  0028              #line 72 "D:\Wade\Project\Robot_Arm\Holtek_MCU\Program\Robot_Arm_Main_v6\Robot_Arm_Main_v6.c"
  72  0028  0F20        	mov a,32
  72  0029  0080     R  	mov _motor_deg_2[2],a
  72  002A  0F03        	mov a,3
  72  002B  0080     R  	mov _motor_deg_2[3],a
  72  002C  0F68        	mov a,104
  72  002D  0080     R  	mov _motor_deg_2[0],a
  72  002E  0F01        	mov a,1
  72  002F  0080     R  	mov _motor_deg_2[1],a
  72  0030              	fcall _motor_deg
  73  0037              #line 73 "D:\Wade\Project\Robot_Arm\Holtek_MCU\Program\Robot_Arm_Main_v6\Robot_Arm_Main_v6.c"
  73  0037  0F88        	mov a,-120
  73  0038  0080     R  	mov _delay_2[0],a
  73  0039  0F13        	mov a,19
  73  003A  0080     R  	mov _delay_2[1],a
  73  003B              	fcall _delay
  74  0042              #line 74 "D:\Wade\Project\Robot_Arm\Holtek_MCU\Program\Robot_Arm_Main_v6\Robot_Arm_Main_v6.c"
  74  0042  329E        	set [30].5
  77  0043              #line 77 "D:\Wade\Project\Robot_Arm\Holtek_MCU\Program\Robot_Arm_Main_v6\Robot_Arm_Main_v6.c"
  77  0043  3428        	clr [40].0
  78  0044              #line 78 "D:\Wade\Project\Robot_Arm\Holtek_MCU\Program\Robot_Arm_Main_v6\Robot_Arm_Main_v6.c"
  78  0044  3027        	set [39].0
  78  0045              _L44:
  88  0045              #line 88 "D:\Wade\Project\Robot_Arm\Holtek_MCU\Program\Robot_Arm_Main_v6\Robot_Arm_Main_v6.c"
  88  0045  0700     R  	mov a,_R_Data[0]
  88  0046  0A41        	sub a,65
  88  0047  390A        	snz z
  88  0048  2800     R  	jmp _L33
  90  0049              #line 90 "D:\Wade\Project\Robot_Arm\Holtek_MCU\Program\Robot_Arm_Main_v6\Robot_Arm_Main_v6.c"
  90  0049  0F30        	mov a,48
  90  004A  0300     R  	add a,_R_Data[3]
  90  004B  0080     E  	mov rf,a
  90  004C  0FEB        	mov a,235
  90  004D  1F00     E  	clr rg
  90  004E  1380     E  	adcm a,rg
  90  004F  1B10        	rrca intc
  90  0050  3410        	clr intc.0
  90  0051  0700     R  	mov a,_R_Data[1]
  90  0052  00D9        	mov mduwr0,a
"File: Robot_Arm_Main_v6.c  Assembler  Version HGASM0202      Page 12

  90  0053  0F64        	mov a,100
  90  0054  00DD        	mov mduwr4,a
  90  0055  1F5A        	clr mduwr1
  90  0056  0F00        	mov a,0
  90  0057  00DE        	mov mduwr5,a
  90  0058  0F06        	mov a,6
  90  0059              _LI1:
  90  0059  1785        	sdz acc
  90  005A  2800     R  	jmp _LI1
  90  005B  0759        	mov a,mduwr0
  90  005C  0080     E  	mov rb,a
  90  005D  075A        	mov a,mduwr1
  90  005E  0080     E  	mov rc,a
  90  005F  3C0A        	sz c
  90  0060  3010        	set intc.0
  90  0061  0700     E  	mov a,rb
  90  0062  0380     E  	addm a,rf
  90  0063  0700     E  	mov a,rc
  90  0064  1380     E  	adcm a,rg
  90  0065  0700     R  	mov a,_R_Data[2]
  90  0066  0080     E  	mov rd,a
  90  0067  1F00     E  	clr re
  90  0068  340A        	clr c
  90  0069  1A00     E  	rlca rd
  90  006A  0080     E  	mov rb,a
  90  006B  1A00     E  	rlca re
  90  006C  0080     E  	mov rc,a
  90  006D  340A        	clr c
  90  006E  1A80     E  	rlc rb
  90  006F  1A80     E  	rlc rc
  90  0070  0700     E  	mov a,rb
  90  0071  0380     E  	addm a,rd
  90  0072  0700     E  	mov a,rc
  90  0073  1380     E  	adcm a,re
  90  0074  340A        	clr c
  90  0075  1A80     E  	rlc rd
  90  0076  1A80     E  	rlc re
  90  0077  0700     E  	mov a,rd
  90  0078  0300     E  	add a,rf
  90  0079  0080     E  	mov rb,a
  90  007A  0700     E  	mov a,re
  90  007B  1300     E  	adc a,rg
  90  007C  0080     E  	mov rc,a
  91  007D              #line 91 "D:\Wade\Project\Robot_Arm\Holtek_MCU\Program\Robot_Arm_Main_v6\Robot_Arm_Main_v6.c"
  91  007D  1B10        	rrca intc
  91  007E  3410        	clr intc.0
  91  007F  0700     E  	mov a,rb
  91  0080  00D9        	mov mduwr0,a
  91  0081  0700     E  	mov a,rc
  91  0082  00DA        	mov mduwr1,a
  91  0083  0F09        	mov a,9
  91  0084  00DD        	mov mduwr4,a
  91  0085  0F00        	mov a,0
  91  0086  00DE        	mov mduwr5,a
  91  0087  0F06        	mov a,6
  91  0088              _LI2:
  91  0088  1785        	sdz acc
  91  0089  2800     R  	jmp _LI2
  91  008A  0759        	mov a,mduwr0
  91  008B  0080     E  	mov rd,a
"File: Robot_Arm_Main_v6.c  Assembler  Version HGASM0202      Page 13

  91  008C  075A        	mov a,mduwr1
  91  008D  0080     E  	mov re,a
  91  008E  3C0A        	sz c
  91  008F  3010        	set intc.0
  91  0090  0700     E  	mov a,rd
  91  0091  0B14        	add a,20
  91  0092  00D4        	mov [84],a
  92  0093              #line 92 "D:\Wade\Project\Robot_Arm\Holtek_MCU\Program\Robot_Arm_Main_v6\Robot_Arm_Main_v6.c"
  92  0093  0700     E  	mov a,rb
  92  0094  00D2        	mov [82],a
  92  0095  0F00        	mov a,0
  92  0096  0380     E  	addm a,rb
  92  0097  0F01        	mov a,1
  92  0098  1380     E  	adcm a,rc
  92  0099  0700     E  	mov a,rc
  92  009A  00D3        	mov [83],a
  93  009B              #line 93 "D:\Wade\Project\Robot_Arm\Holtek_MCU\Program\Robot_Arm_Main_v6\Robot_Arm_Main_v6.c"
  93  009B  0F01        	mov a,1
  93  009C  0080     R  	mov _delay_2[0],a
  93  009D  1F00     R  	clr _delay_2[1]
  93  009E              	fcall _delay
  93  00A5              _L33:
  95  00A5              #line 95 "D:\Wade\Project\Robot_Arm\Holtek_MCU\Program\Robot_Arm_Main_v6\Robot_Arm_Main_v6.c"
  95  00A5  0700     R  	mov a,_R_Data[0]
  95  00A6  0A42        	sub a,66
  95  00A7  390A        	snz z
  95  00A8  2800     R  	jmp _L34
  97  00A9              #line 97 "D:\Wade\Project\Robot_Arm\Holtek_MCU\Program\Robot_Arm_Main_v6\Robot_Arm_Main_v6.c"
  97  00A9  0F30        	mov a,48
  97  00AA  0300     R  	add a,_R_Data[3]
  97  00AB  0080     E  	mov rf,a
  97  00AC  0FEB        	mov a,235
  97  00AD  1F00     E  	clr rg
  97  00AE  1380     E  	adcm a,rg
  97  00AF  1B10        	rrca intc
  97  00B0  3410        	clr intc.0
  97  00B1  0700     R  	mov a,_R_Data[1]
  97  00B2  00D9        	mov mduwr0,a
  97  00B3  0F64        	mov a,100
  97  00B4  00DD        	mov mduwr4,a
  97  00B5  1F5A        	clr mduwr1
  97  00B6  0F00        	mov a,0
  97  00B7  00DE        	mov mduwr5,a
  97  00B8  0F06        	mov a,6
  97  00B9              _LI3:
  97  00B9  1785        	sdz acc
  97  00BA  2800     R  	jmp _LI3
  97  00BB  0759        	mov a,mduwr0
  97  00BC  0080     E  	mov rb,a
  97  00BD  075A        	mov a,mduwr1
  97  00BE  0080     E  	mov rc,a
  97  00BF  3C0A        	sz c
  97  00C0  3010        	set intc.0
  97  00C1  0700     E  	mov a,rb
  97  00C2  0380     E  	addm a,rf
  97  00C3  0700     E  	mov a,rc
  97  00C4  1380     E  	adcm a,rg
  97  00C5  0700     R  	mov a,_R_Data[2]
  97  00C6  0080     E  	mov rd,a
  97  00C7  1F00     E  	clr re
"File: Robot_Arm_Main_v6.c  Assembler  Version HGASM0202      Page 14

  97  00C8  340A        	clr c
  97  00C9  1A00     E  	rlca rd
  97  00CA  0080     E  	mov rb,a
  97  00CB  1A00     E  	rlca re
  97  00CC  0080     E  	mov rc,a
  97  00CD  340A        	clr c
  97  00CE  1A80     E  	rlc rb
  97  00CF  1A80     E  	rlc rc
  97  00D0  0700     E  	mov a,rb
  97  00D1  0380     E  	addm a,rd
  97  00D2  0700     E  	mov a,rc
  97  00D3  1380     E  	adcm a,re
  97  00D4  340A        	clr c
  97  00D5  1A80     E  	rlc rd
  97  00D6  1A80     E  	rlc re
  97  00D7  0700     E  	mov a,rd
  97  00D8  0300     E  	add a,rf
  97  00D9  0080     E  	mov rb,a
  97  00DA  0700     E  	mov a,re
  97  00DB  1300     E  	adc a,rg
  97  00DC  0080     E  	mov rc,a
  98  00DD              #line 98 "D:\Wade\Project\Robot_Arm\Holtek_MCU\Program\Robot_Arm_Main_v6\Robot_Arm_Main_v6.c"
  98  00DD  1B10        	rrca intc
  98  00DE  3410        	clr intc.0
  98  00DF  0700     E  	mov a,rb
  98  00E0  00D9        	mov mduwr0,a
  98  00E1  0700     E  	mov a,rc
  98  00E2  00DA        	mov mduwr1,a
  98  00E3  0F09        	mov a,9
  98  00E4  00DD        	mov mduwr4,a
  98  00E5  0F00        	mov a,0
  98  00E6  00DE        	mov mduwr5,a
  98  00E7  0F06        	mov a,6
  98  00E8              _LI4:
  98  00E8  1785        	sdz acc
  98  00E9  2800     R  	jmp _LI4
  98  00EA  0759        	mov a,mduwr0
  98  00EB  0080     E  	mov rd,a
  98  00EC  075A        	mov a,mduwr1
  98  00ED  0080     E  	mov re,a
  98  00EE  3C0A        	sz c
  98  00EF  3010        	set intc.0
  98  00F0  0700     E  	mov a,rd
  98  00F1  0B14        	add a,20
  98  00F2  80B8 0001   	lmov [312],a
  99  00F4              #line 99 "D:\Wade\Project\Robot_Arm\Holtek_MCU\Program\Robot_Arm_Main_v6\Robot_Arm_Main_v6.c"
  99  00F4  0700     E  	mov a,rb
  99  00F5  80B6 0001   	lmov [310],a
  99  00F7  0F00        	mov a,0
  99  00F8  0380     E  	addm a,rb
  99  00F9  0F01        	mov a,1
  99  00FA  1380     E  	adcm a,rc
  99  00FB  0700     E  	mov a,rc
  99  00FC  80B7 0001   	lmov [311],a
 100  00FE              #line 100 "D:\Wade\Project\Robot_Arm\Holtek_MCU\Program\Robot_Arm_Main_v6\Robot_Arm_Main_v6.c"
 100  00FE  0F01        	mov a,1
 100  00FF  0080     R  	mov _delay_2[0],a
 100  0100  1F00     R  	clr _delay_2[1]
 100  0101              	fcall _delay
 100  0108              _L34:
"File: Robot_Arm_Main_v6.c  Assembler  Version HGASM0202      Page 15

 102  0108              #line 102 "D:\Wade\Project\Robot_Arm\Holtek_MCU\Program\Robot_Arm_Main_v6\Robot_Arm_Main_v6.c"
 102  0108  0700     R  	mov a,_R_Data[0]
 102  0109  0A43        	sub a,67
 102  010A  390A        	snz z
 102  010B  2800     R  	jmp _L35
 104  010C              #line 104 "D:\Wade\Project\Robot_Arm\Holtek_MCU\Program\Robot_Arm_Main_v6\Robot_Arm_Main_v6.c"
 104  010C  0F30        	mov a,48
 104  010D  0300     R  	add a,_R_Data[3]
 104  010E  0080     E  	mov rf,a
 104  010F  0FEB        	mov a,235
 104  0110  1F00     E  	clr rg
 104  0111  1380     E  	adcm a,rg
 104  0112  1B10        	rrca intc
 104  0113  3410        	clr intc.0
 104  0114  0700     R  	mov a,_R_Data[1]
 104  0115  00D9        	mov mduwr0,a
 104  0116  0F64        	mov a,100
 104  0117  00DD        	mov mduwr4,a
 104  0118  1F5A        	clr mduwr1
 104  0119  0F00        	mov a,0
 104  011A  00DE        	mov mduwr5,a
 104  011B  0F06        	mov a,6
 104  011C              _LI5:
 104  011C  1785        	sdz acc
 104  011D  2800     R  	jmp _LI5
 104  011E  0759        	mov a,mduwr0
 104  011F  0080     E  	mov rb,a
 104  0120  075A        	mov a,mduwr1
 104  0121  0080     E  	mov rc,a
 104  0122  3C0A        	sz c
 104  0123  3010        	set intc.0
 104  0124  0700     E  	mov a,rb
 104  0125  0380     E  	addm a,rf
 104  0126  0700     E  	mov a,rc
 104  0127  1380     E  	adcm a,rg
 104  0128  0700     R  	mov a,_R_Data[2]
 104  0129  0080     E  	mov rd,a
 104  012A  1F00     E  	clr re
 104  012B  340A        	clr c
 104  012C  1A00     E  	rlca rd
 104  012D  0080     E  	mov rb,a
 104  012E  1A00     E  	rlca re
 104  012F  0080     E  	mov rc,a
 104  0130  340A        	clr c
 104  0131  1A80     E  	rlc rb
 104  0132  1A80     E  	rlc rc
 104  0133  0700     E  	mov a,rb
 104  0134  0380     E  	addm a,rd
 104  0135  0700     E  	mov a,rc
 104  0136  1380     E  	adcm a,re
 104  0137  340A        	clr c
 104  0138  1A80     E  	rlc rd
 104  0139  1A80     E  	rlc re
 104  013A  0700     E  	mov a,rd
 104  013B  0300     E  	add a,rf
 104  013C  0080     E  	mov rb,a
 104  013D  0700     E  	mov a,re
 104  013E  1300     E  	adc a,rg
 104  013F  0080     E  	mov rc,a
 105  0140              #line 105 "D:\Wade\Project\Robot_Arm\Holtek_MCU\Program\Robot_Arm_Main_v6\Robot_Arm_Main_v6.c"
"File: Robot_Arm_Main_v6.c  Assembler  Version HGASM0202      Page 16

 105  0140  1B10        	rrca intc
 105  0141  3410        	clr intc.0
 105  0142  0700     E  	mov a,rb
 105  0143  00D9        	mov mduwr0,a
 105  0144  0700     E  	mov a,rc
 105  0145  00DA        	mov mduwr1,a
 105  0146  0F09        	mov a,9
 105  0147  00DD        	mov mduwr4,a
 105  0148  0F00        	mov a,0
 105  0149  00DE        	mov mduwr5,a
 105  014A  0F06        	mov a,6
 105  014B              _LI6:
 105  014B  1785        	sdz acc
 105  014C  2800     R  	jmp _LI6
 105  014D  0759        	mov a,mduwr0
 105  014E  0080     E  	mov rd,a
 105  014F  075A        	mov a,mduwr1
 105  0150  0080     E  	mov re,a
 105  0151  3C0A        	sz c
 105  0152  3010        	set intc.0
 105  0153  0700     E  	mov a,rd
 105  0154  0B14        	add a,20
 105  0155  80BF 0001   	lmov [319],a
 106  0157              #line 106 "D:\Wade\Project\Robot_Arm\Holtek_MCU\Program\Robot_Arm_Main_v6\Robot_Arm_Main_v6.c"
 106  0157  0700     E  	mov a,rb
 106  0158  80BD 0001   	lmov [317],a
 106  015A  0F00        	mov a,0
 106  015B  0380     E  	addm a,rb
 106  015C  0F01        	mov a,1
 106  015D  1380     E  	adcm a,rc
 106  015E  0700     E  	mov a,rc
 106  015F  80BE 0001   	lmov [318],a
 107  0161              #line 107 "D:\Wade\Project\Robot_Arm\Holtek_MCU\Program\Robot_Arm_Main_v6\Robot_Arm_Main_v6.c"
 107  0161  0F01        	mov a,1
 107  0162  0080     R  	mov _delay_2[0],a
 107  0163  1F00     R  	clr _delay_2[1]
 107  0164              	fcall _delay
 107  016B              _L35:
 109  016B              #line 109 "D:\Wade\Project\Robot_Arm\Holtek_MCU\Program\Robot_Arm_Main_v6\Robot_Arm_Main_v6.c"
 109  016B  0700     R  	mov a,_R_Data[0]
 109  016C  0A44        	sub a,68
 109  016D  390A        	snz z
 109  016E  2800     R  	jmp _L36
 111  016F              #line 111 "D:\Wade\Project\Robot_Arm\Holtek_MCU\Program\Robot_Arm_Main_v6\Robot_Arm_Main_v6.c"
 111  016F  0F30        	mov a,48
 111  0170  0300     R  	add a,_R_Data[3]
 111  0171  0080     E  	mov rf,a
 111  0172  0FEB        	mov a,235
 111  0173  1F00     E  	clr rg
 111  0174  1380     E  	adcm a,rg
 111  0175  1B10        	rrca intc
 111  0176  3410        	clr intc.0
 111  0177  0700     R  	mov a,_R_Data[1]
 111  0178  00D9        	mov mduwr0,a
 111  0179  0F64        	mov a,100
 111  017A  00DD        	mov mduwr4,a
 111  017B  1F5A        	clr mduwr1
 111  017C  0F00        	mov a,0
 111  017D  00DE        	mov mduwr5,a
 111  017E  0F06        	mov a,6
"File: Robot_Arm_Main_v6.c  Assembler  Version HGASM0202      Page 17

 111  017F              _LI7:
 111  017F  1785        	sdz acc
 111  0180  2800     R  	jmp _LI7
 111  0181  0759        	mov a,mduwr0
 111  0182  0080     E  	mov rb,a
 111  0183  075A        	mov a,mduwr1
 111  0184  0080     E  	mov rc,a
 111  0185  3C0A        	sz c
 111  0186  3010        	set intc.0
 111  0187  0700     E  	mov a,rb
 111  0188  0380     E  	addm a,rf
 111  0189  0700     E  	mov a,rc
 111  018A  1380     E  	adcm a,rg
 111  018B  0700     R  	mov a,_R_Data[2]
 111  018C  0080     E  	mov rd,a
 111  018D  1F00     E  	clr re
 111  018E  340A        	clr c
 111  018F  1A00     E  	rlca rd
 111  0190  0080     E  	mov rb,a
 111  0191  1A00     E  	rlca re
 111  0192  0080     E  	mov rc,a
 111  0193  340A        	clr c
 111  0194  1A80     E  	rlc rb
 111  0195  1A80     E  	rlc rc
 111  0196  0700     E  	mov a,rb
 111  0197  0380     E  	addm a,rd
 111  0198  0700     E  	mov a,rc
 111  0199  1380     E  	adcm a,re
 111  019A  340A        	clr c
 111  019B  1A80     E  	rlc rd
 111  019C  1A80     E  	rlc re
 111  019D  0700     E  	mov a,rd
 111  019E  0300     E  	add a,rf
 111  019F  0080     E  	mov rb,a
 111  01A0  0700     E  	mov a,re
 111  01A1  1300     E  	adc a,rg
 111  01A2  0080     E  	mov rc,a
 112  01A3              #line 112 "D:\Wade\Project\Robot_Arm\Holtek_MCU\Program\Robot_Arm_Main_v6\Robot_Arm_Main_v6.c"
 112  01A3  1F4C        	clr [76]
 112  01A4  1B10        	rrca intc
 112  01A5  3410        	clr intc.0
 112  01A6  0700     E  	mov a,rb
 112  01A7  00D9        	mov mduwr0,a
 112  01A8  0700     E  	mov a,rc
 112  01A9  00DA        	mov mduwr1,a
 112  01AA  0F09        	mov a,9
 112  01AB  00DD        	mov mduwr4,a
 112  01AC  0F00        	mov a,0
 112  01AD  00DE        	mov mduwr5,a
 112  01AE  0F06        	mov a,6
 112  01AF              _LI8:
 112  01AF  1785        	sdz acc
 112  01B0  2800     R  	jmp _LI8
 112  01B1  0759        	mov a,mduwr0
 112  01B2  0080     E  	mov rd,a
 112  01B3  075A        	mov a,mduwr1
 112  01B4  0080     E  	mov re,a
 112  01B5  3C0A        	sz c
 112  01B6  3010        	set intc.0
 112  01B7  0700     E  	mov a,rd
"File: Robot_Arm_Main_v6.c  Assembler  Version HGASM0202      Page 18

 112  01B8  0B14        	add a,20
 112  01B9  00CD        	mov [77],a
 113  01BA              #line 113 "D:\Wade\Project\Robot_Arm\Holtek_MCU\Program\Robot_Arm_Main_v6\Robot_Arm_Main_v6.c"
 113  01BA  0700     E  	mov a,rb
 113  01BB  00CA        	mov [74],a
 113  01BC  0F00        	mov a,0
 113  01BD  0380     E  	addm a,rb
 113  01BE  0F01        	mov a,1
 113  01BF  1380     E  	adcm a,rc
 113  01C0  0700     E  	mov a,rc
 113  01C1  00CB        	mov [75],a
 114  01C2              #line 114 "D:\Wade\Project\Robot_Arm\Holtek_MCU\Program\Robot_Arm_Main_v6\Robot_Arm_Main_v6.c"
 114  01C2  0F01        	mov a,1
 114  01C3  0080     R  	mov _delay_2[0],a
 114  01C4  1F00     R  	clr _delay_2[1]
 114  01C5              	fcall _delay
 114  01CC              _L36:
 116  01CC              #line 116 "D:\Wade\Project\Robot_Arm\Holtek_MCU\Program\Robot_Arm_Main_v6\Robot_Arm_Main_v6.c"
 116  01CC  0700     R  	mov a,_R_Data[0]
 116  01CD  0A45        	sub a,69
 116  01CE  390A        	snz z
 116  01CF  2800     R  	jmp _L37
 118  01D0              #line 118 "D:\Wade\Project\Robot_Arm\Holtek_MCU\Program\Robot_Arm_Main_v6\Robot_Arm_Main_v6.c"
 118  01D0  0F30        	mov a,48
 118  01D1  0300     R  	add a,_R_Data[3]
 118  01D2  0080     E  	mov rf,a
 118  01D3  0FEB        	mov a,235
 118  01D4  1F00     E  	clr rg
 118  01D5  1380     E  	adcm a,rg
 118  01D6  1B10        	rrca intc
 118  01D7  3410        	clr intc.0
 118  01D8  0700     R  	mov a,_R_Data[1]
 118  01D9  00D9        	mov mduwr0,a
 118  01DA  0F64        	mov a,100
 118  01DB  00DD        	mov mduwr4,a
 118  01DC  1F5A        	clr mduwr1
 118  01DD  0F00        	mov a,0
 118  01DE  00DE        	mov mduwr5,a
 118  01DF  0F06        	mov a,6
 118  01E0              _LI9:
 118  01E0  1785        	sdz acc
 118  01E1  2800     R  	jmp _LI9
 118  01E2  0759        	mov a,mduwr0
 118  01E3  0080     E  	mov rb,a
 118  01E4  075A        	mov a,mduwr1
 118  01E5  0080     E  	mov rc,a
 118  01E6  3C0A        	sz c
 118  01E7  3010        	set intc.0
 118  01E8  0700     E  	mov a,rb
 118  01E9  0380     E  	addm a,rf
 118  01EA  0700     E  	mov a,rc
 118  01EB  1380     E  	adcm a,rg
 118  01EC  0700     R  	mov a,_R_Data[2]
 118  01ED  0080     E  	mov rd,a
 118  01EE  1F00     E  	clr re
 118  01EF  340A        	clr c
 118  01F0  1A00     E  	rlca rd
 118  01F1  0080     E  	mov rb,a
 118  01F2  1A00     E  	rlca re
 118  01F3  0080     E  	mov rc,a
"File: Robot_Arm_Main_v6.c  Assembler  Version HGASM0202      Page 19

 118  01F4  340A        	clr c
 118  01F5  1A80     E  	rlc rb
 118  01F6  1A80     E  	rlc rc
 118  01F7  0700     E  	mov a,rb
 118  01F8  0380     E  	addm a,rd
 118  01F9  0700     E  	mov a,rc
 118  01FA  1380     E  	adcm a,re
 118  01FB  340A        	clr c
 118  01FC  1A80     E  	rlc rd
 118  01FD  1A80     E  	rlc re
 118  01FE  0700     E  	mov a,rd
 118  01FF  0300     E  	add a,rf
 118  0200  0080     E  	mov rb,a
 118  0201  0700     E  	mov a,re
 118  0202  1300     E  	adc a,rg
 118  0203  0080     E  	mov rc,a
 119  0204              #line 119 "D:\Wade\Project\Robot_Arm\Holtek_MCU\Program\Robot_Arm_Main_v6\Robot_Arm_Main_v6.c"
 119  0204  9F20 0001   	lclr [288]
 119  0206  1B10        	rrca intc
 119  0207  3410        	clr intc.0
 119  0208  0700     E  	mov a,rb
 119  0209  00D9        	mov mduwr0,a
 119  020A  0700     E  	mov a,rc
 119  020B  00DA        	mov mduwr1,a
 119  020C  0F09        	mov a,9
 119  020D  00DD        	mov mduwr4,a
 119  020E  0F00        	mov a,0
 119  020F  00DE        	mov mduwr5,a
 119  0210  0F06        	mov a,6
 119  0211              _LI10:
 119  0211  1785        	sdz acc
 119  0212  2800     R  	jmp _LI10
 119  0213  0759        	mov a,mduwr0
 119  0214  0080     E  	mov rd,a
 119  0215  075A        	mov a,mduwr1
 119  0216  0080     E  	mov re,a
 119  0217  3C0A        	sz c
 119  0218  3010        	set intc.0
 119  0219  0700     E  	mov a,rd
 119  021A  0B14        	add a,20
 119  021B  80A1 0001   	lmov [289],a
 120  021D              #line 120 "D:\Wade\Project\Robot_Arm\Holtek_MCU\Program\Robot_Arm_Main_v6\Robot_Arm_Main_v6.c"
 120  021D  0700     E  	mov a,rb
 120  021E  809E 0001   	lmov [286],a
 120  0220  0F00        	mov a,0
 120  0221  0380     E  	addm a,rb
 120  0222  0F01        	mov a,1
 120  0223  1380     E  	adcm a,rc
 120  0224  0700     E  	mov a,rc
 120  0225  809F 0001   	lmov [287],a
 121  0227              #line 121 "D:\Wade\Project\Robot_Arm\Holtek_MCU\Program\Robot_Arm_Main_v6\Robot_Arm_Main_v6.c"
 121  0227  0F01        	mov a,1
 121  0228  0080     R  	mov _delay_2[0],a
 121  0229  1F00     R  	clr _delay_2[1]
 121  022A              	fcall _delay
 121  0231              _L37:
 124  0231              #line 124 "D:\Wade\Project\Robot_Arm\Holtek_MCU\Program\Robot_Arm_Main_v6\Robot_Arm_Main_v6.c"
 124  0231  0700     R  	mov a,_R_Data[0]
 124  0232  0A46        	sub a,70
 124  0233  390A        	snz z
"File: Robot_Arm_Main_v6.c  Assembler  Version HGASM0202      Page 20

 124  0234  2800     R  	jmp _L38
 126  0235              #line 126 "D:\Wade\Project\Robot_Arm\Holtek_MCU\Program\Robot_Arm_Main_v6\Robot_Arm_Main_v6.c"
 126  0235  0F30        	mov a,48
 126  0236  0300     R  	add a,_R_Data[3]
 126  0237  0080     E  	mov rf,a
 126  0238  0FEB        	mov a,235
 126  0239  1F00     E  	clr rg
 126  023A  1380     E  	adcm a,rg
 126  023B  1B10        	rrca intc
 126  023C  3410        	clr intc.0
 126  023D  0700     R  	mov a,_R_Data[1]
 126  023E  00D9        	mov mduwr0,a
 126  023F  0F64        	mov a,100
 126  0240  00DD        	mov mduwr4,a
 126  0241  1F5A        	clr mduwr1
 126  0242  0F00        	mov a,0
 126  0243  00DE        	mov mduwr5,a
 126  0244  0F06        	mov a,6
 126  0245              _LI11:
 126  0245  1785        	sdz acc
 126  0246  2800     R  	jmp _LI11
 126  0247  0759        	mov a,mduwr0
 126  0248  0080     E  	mov rb,a
 126  0249  075A        	mov a,mduwr1
 126  024A  0080     E  	mov rc,a
 126  024B  3C0A        	sz c
 126  024C  3010        	set intc.0
 126  024D  0700     E  	mov a,rb
 126  024E  0380     E  	addm a,rf
 126  024F  0700     E  	mov a,rc
 126  0250  1380     E  	adcm a,rg
 126  0251  0700     R  	mov a,_R_Data[2]
 126  0252  0080     E  	mov rd,a
 126  0253  1F00     E  	clr re
 126  0254  340A        	clr c
 126  0255  1A00     E  	rlca rd
 126  0256  0080     E  	mov rb,a
 126  0257  1A00     E  	rlca re
 126  0258  0080     E  	mov rc,a
 126  0259  340A        	clr c
 126  025A  1A80     E  	rlc rb
 126  025B  1A80     E  	rlc rc
 126  025C  0700     E  	mov a,rb
 126  025D  0380     E  	addm a,rd
 126  025E  0700     E  	mov a,rc
 126  025F  1380     E  	adcm a,re
 126  0260  340A        	clr c
 126  0261  1A80     E  	rlc rd
 126  0262  1A80     E  	rlc re
 126  0263  0700     E  	mov a,rd
 126  0264  0300     E  	add a,rf
 126  0265  0080     E  	mov rb,a
 126  0266  0700     E  	mov a,re
 126  0267  1300     E  	adc a,rg
 126  0268  0080     E  	mov rc,a
 127  0269              #line 127 "D:\Wade\Project\Robot_Arm\Holtek_MCU\Program\Robot_Arm_Main_v6\Robot_Arm_Main_v6.c"
 127  0269  9F28 0001   	lclr [296]
 127  026B  1B10        	rrca intc
 127  026C  3410        	clr intc.0
 127  026D  0700     E  	mov a,rb
"File: Robot_Arm_Main_v6.c  Assembler  Version HGASM0202      Page 21

 127  026E  00D9        	mov mduwr0,a
 127  026F  0700     E  	mov a,rc
 127  0270  00DA        	mov mduwr1,a
 127  0271  0F14        	mov a,20
 127  0272  00DD        	mov mduwr4,a
 127  0273  0F00        	mov a,0
 127  0274  00DE        	mov mduwr5,a
 127  0275  0F06        	mov a,6
 127  0276              _LI12:
 127  0276  1785        	sdz acc
 127  0277  2800     R  	jmp _LI12
 127  0278  0759        	mov a,mduwr0
 127  0279  0080     E  	mov rd,a
 127  027A  075A        	mov a,mduwr1
 127  027B  0080     E  	mov re,a
 127  027C  3C0A        	sz c
 127  027D  3010        	set intc.0
 127  027E  0700     E  	mov a,rd
 127  027F  0B19        	add a,25
 127  0280  80A9 0001   	lmov [297],a
 128  0282              #line 128 "D:\Wade\Project\Robot_Arm\Holtek_MCU\Program\Robot_Arm_Main_v6\Robot_Arm_Main_v6.c"
 128  0282  0700     E  	mov a,rb
 128  0283  80A6 0001   	lmov [294],a
 128  0285  0F00        	mov a,0
 128  0286  0380     E  	addm a,rb
 128  0287  0F01        	mov a,1
 128  0288  1380     E  	adcm a,rc
 128  0289  0700     E  	mov a,rc
 128  028A  80A7 0001   	lmov [295],a
 129  028C              #line 129 "D:\Wade\Project\Robot_Arm\Holtek_MCU\Program\Robot_Arm_Main_v6\Robot_Arm_Main_v6.c"
 129  028C  0F01        	mov a,1
 129  028D  0080     R  	mov _delay_2[0],a
 129  028E  1F00     R  	clr _delay_2[1]
 129  028F              	fcall _delay
 129  0296              _L38:
 133  0296              #line 133 "D:\Wade\Project\Robot_Arm\Holtek_MCU\Program\Robot_Arm_Main_v6\Robot_Arm_Main_v6.c"
 133  0296  0700     R  	mov a,_R_Data[0]
 133  0297  0A4C        	sub a,76
 133  0298  390A        	snz z
 133  0299  2800     R  	jmp _L39
 135  029A              #line 135 "D:\Wade\Project\Robot_Arm\Holtek_MCU\Program\Robot_Arm_Main_v6\Robot_Arm_Main_v6.c"
 135  029A  3427        	clr [39].0
 136  029B              #line 136 "D:\Wade\Project\Robot_Arm\Holtek_MCU\Program\Robot_Arm_Main_v6\Robot_Arm_Main_v6.c"
 136  029B  369E        	clr [30].5
 137  029C              #line 137 "D:\Wade\Project\Robot_Arm\Holtek_MCU\Program\Robot_Arm_Main_v6\Robot_Arm_Main_v6.c"
 137  029C  321E        	set [30].4
 138  029D              #line 138 "D:\Wade\Project\Robot_Arm\Holtek_MCU\Program\Robot_Arm_Main_v6\Robot_Arm_Main_v6.c"
 138  029D  0F01        	mov a,1
 138  029E  0080     R  	mov _delay_2[0],a
 138  029F  1F00     R  	clr _delay_2[1]
 138  02A0              	fcall _delay
 138  02A7              _L39:
 140  02A7              #line 140 "D:\Wade\Project\Robot_Arm\Holtek_MCU\Program\Robot_Arm_Main_v6\Robot_Arm_Main_v6.c"
 140  02A7  0700     R  	mov a,_R_Data[0]
 140  02A8  0A53        	sub a,83
 140  02A9  390A        	snz z
 140  02AA  2800     R  	jmp _L40
 142  02AB              #line 142 "D:\Wade\Project\Robot_Arm\Holtek_MCU\Program\Robot_Arm_Main_v6\Robot_Arm_Main_v6.c"
 142  02AB  3027        	set [39].0
 143  02AC              #line 143 "D:\Wade\Project\Robot_Arm\Holtek_MCU\Program\Robot_Arm_Main_v6\Robot_Arm_Main_v6.c"
"File: Robot_Arm_Main_v6.c  Assembler  Version HGASM0202      Page 22

 143  02AC  329E        	set [30].5
 144  02AD              #line 144 "D:\Wade\Project\Robot_Arm\Holtek_MCU\Program\Robot_Arm_Main_v6\Robot_Arm_Main_v6.c"
 144  02AD  0F01        	mov a,1
 144  02AE  0080     R  	mov _delay_2[0],a
 144  02AF  1F00     R  	clr _delay_2[1]
 144  02B0              	fcall _delay
 144  02B7              _L40:
 146  02B7              #line 146 "D:\Wade\Project\Robot_Arm\Holtek_MCU\Program\Robot_Arm_Main_v6\Robot_Arm_Main_v6.c"
 146  02B7  0700     R  	mov a,_R_Data[0]
 146  02B8  0A52        	sub a,82
 146  02B9  390A        	snz z
 146  02BA  2800     R  	jmp _L41
 148  02BB              #line 148 "D:\Wade\Project\Robot_Arm\Holtek_MCU\Program\Robot_Arm_Main_v6\Robot_Arm_Main_v6.c"
 148  02BB  369E        	clr [30].5
 149  02BC              #line 149 "D:\Wade\Project\Robot_Arm\Holtek_MCU\Program\Robot_Arm_Main_v6\Robot_Arm_Main_v6.c"
 149  02BC  361E        	clr [30].4
 150  02BD              #line 150 "D:\Wade\Project\Robot_Arm\Holtek_MCU\Program\Robot_Arm_Main_v6\Robot_Arm_Main_v6.c"
 150  02BD  0F01        	mov a,1
 150  02BE  0080     R  	mov _delay_2[0],a
 150  02BF  1F00     R  	clr _delay_2[1]
 150  02C0              	fcall _delay
 150  02C7              _L41:
 154  02C7              #line 154 "D:\Wade\Project\Robot_Arm\Holtek_MCU\Program\Robot_Arm_Main_v6\Robot_Arm_Main_v6.c"
 154  02C7  0700     R  	mov a,_R_Data[0]
 154  02C8  0A4B        	sub a,75
 154  02C9  390A        	snz z
 154  02CA  2800     R  	jmp _L42
 156  02CB              #line 156 "D:\Wade\Project\Robot_Arm\Holtek_MCU\Program\Robot_Arm_Main_v6\Robot_Arm_Main_v6.c"
 156  02CB  1F52        	clr [82]
 156  02CC  0F01        	mov a,1
 156  02CD  00D3        	mov [83],a
 157  02CE              #line 157 "D:\Wade\Project\Robot_Arm\Holtek_MCU\Program\Robot_Arm_Main_v6\Robot_Arm_Main_v6.c"
 157  02CE  9F36 0001   	lclr [310]
 157  02D0  0F01        	mov a,1
 157  02D1  80B7 0001   	lmov [311],a
 158  02D3              #line 158 "D:\Wade\Project\Robot_Arm\Holtek_MCU\Program\Robot_Arm_Main_v6\Robot_Arm_Main_v6.c"
 158  02D3  9F3D 0001   	lclr [317]
 158  02D5  0F01        	mov a,1
 158  02D6  80BE 0001   	lmov [318],a
 159  02D8              #line 159 "D:\Wade\Project\Robot_Arm\Holtek_MCU\Program\Robot_Arm_Main_v6\Robot_Arm_Main_v6.c"
 159  02D8  1F4A        	clr [74]
 159  02D9  0F01        	mov a,1
 159  02DA  00CB        	mov [75],a
 160  02DB              #line 160 "D:\Wade\Project\Robot_Arm\Holtek_MCU\Program\Robot_Arm_Main_v6\Robot_Arm_Main_v6.c"
 160  02DB  9F1E 0001   	lclr [286]
 160  02DD  0F01        	mov a,1
 160  02DE  809F 0001   	lmov [287],a
 161  02E0              #line 161 "D:\Wade\Project\Robot_Arm\Holtek_MCU\Program\Robot_Arm_Main_v6\Robot_Arm_Main_v6.c"
 161  02E0  0F0A        	mov a,10
 161  02E1  80A6 0001   	lmov [294],a
 161  02E3  0F01        	mov a,1
 161  02E4  80A7 0001   	lmov [295],a
 163  02E6              #line 163 "D:\Wade\Project\Robot_Arm\Holtek_MCU\Program\Robot_Arm_Main_v6\Robot_Arm_Main_v6.c"
 163  02E6              	fcall _motor_callb
 164  02ED              #line 164 "D:\Wade\Project\Robot_Arm\Holtek_MCU\Program\Robot_Arm_Main_v6\Robot_Arm_Main_v6.c"
 164  02ED  321E        	set [30].4
 165  02EE              #line 165 "D:\Wade\Project\Robot_Arm\Holtek_MCU\Program\Robot_Arm_Main_v6\Robot_Arm_Main_v6.c"
 165  02EE  0F20        	mov a,32
 165  02EF  0080     R  	mov _motor_deg_2[2],a
 165  02F0  0F03        	mov a,3
"File: Robot_Arm_Main_v6.c  Assembler  Version HGASM0202      Page 23

 165  02F1  0080     R  	mov _motor_deg_2[3],a
 165  02F2  0F68        	mov a,104
 165  02F3  0080     R  	mov _motor_deg_2[0],a
 165  02F4  0F01        	mov a,1
 165  02F5  0080     R  	mov _motor_deg_2[1],a
 165  02F6              	fcall _motor_deg
 166  02FD              #line 166 "D:\Wade\Project\Robot_Arm\Holtek_MCU\Program\Robot_Arm_Main_v6\Robot_Arm_Main_v6.c"
 166  02FD  0F88        	mov a,-120
 166  02FE  0080     R  	mov _delay_2[0],a
 166  02FF  0F13        	mov a,19
 166  0300  0080     R  	mov _delay_2[1],a
 166  0301              	fcall _delay
 167  0308              #line 167 "D:\Wade\Project\Robot_Arm\Holtek_MCU\Program\Robot_Arm_Main_v6\Robot_Arm_Main_v6.c"
 167  0308  329E        	set [30].5
 167  0309              _L42:
  48  0309              #line 48 "D:\Wade\Project\Robot_Arm\Holtek_MCU\Program\Robot_Arm_Main_v6\Robot_Arm_Main_v6.c"
  48  0309  1F00     R  	clr _main_2[0]
  48  030A              _L45:
 172  030A              #line 172 "D:\Wade\Project\Robot_Arm\Holtek_MCU\Program\Robot_Arm_Main_v6\Robot_Arm_Main_v6.c"
 172  030A  359E        	clr [30].3
 173  030B              #line 173 "D:\Wade\Project\Robot_Arm\Holtek_MCU\Program\Robot_Arm_Main_v6\Robot_Arm_Main_v6.c"
 173  030B  0F14        	mov a,20
 173  030C  0080     R  	mov _ptm_delay_2[0],a
 173  030D  0F05        	mov a,5
 173  030E  0080     R  	mov _ptm_delay_2[1],a
 173  030F              	fcall _ptm_delay
 174  0316              #line 174 "D:\Wade\Project\Robot_Arm\Holtek_MCU\Program\Robot_Arm_Main_v6\Robot_Arm_Main_v6.c"
 174  0316  319E        	set [30].3
 175  0317              #line 175 "D:\Wade\Project\Robot_Arm\Holtek_MCU\Program\Robot_Arm_Main_v6\Robot_Arm_Main_v6.c"
 175  0317  0F14        	mov a,20
 175  0318  0080     R  	mov _ptm_delay_2[0],a
 175  0319  0F05        	mov a,5
 175  031A  0080     R  	mov _ptm_delay_2[1],a
 175  031B              	fcall _ptm_delay
 175  0322  1480     R  	inc _main_2[0]
 170  0323              #line 170 "D:\Wade\Project\Robot_Arm\Holtek_MCU\Program\Robot_Arm_Main_v6\Robot_Arm_Main_v6.c"
 170  0323  0700     R  	mov a,_main_2[0]
 170  0324  0A09        	sub a,9
 170  0325  390A        	snz z
 170  0326  2800     R  	jmp _L45
 170  0327  2800     R  	jmp _L44
 170  0328  2800     R  	jmp $
 170  0329              _main endp
 170  0329              
 170  0329              @dummy endp
 170  0329              
 170  0329              #line 170 "D:\Wade\Project\Robot_Arm\Holtek_MCU\Program\Robot_Arm_Main_v6\Robot_Arm_Main_v6.c"
 170  0329              #pragma debug scope 1 1
 170  0329              public _kn
 170  0000              @HCCINIT	.section 'data'
   9  0000              #line 9 "D:\Wade\Project\Robot_Arm\Holtek_MCU\Program\Robot_Arm_Main_v6\Robot_Arm_Main_v6.c"
   9  0000              @HCCINIT_kn .section 'data'
   9  0000              _kn label byte
   9  0000              #pragma debug variable 10 1 _kn "kn"
   9  0000              	db 0
   9  0000              @ROMDATA_BASE .section inpage 'code'
   9  0000              	db 0
   9  0001              @HCCINIT_kn .section 'data'
   9  0001              	db 0
   9  0001              @ROMDATA_BASE .section inpage 'code'
"File: Robot_Arm_Main_v6.c  Assembler  Version HGASM0202      Page 24

   9  0001              	db 0
   9  0002              @HCCINIT_kn .section 'data'
   8  0002              #line 8 "D:\Wade\Project\Robot_Arm\Holtek_MCU\Program\Robot_Arm_Main_v6\Robot_Arm_Main_v6.c"
   8  0002              public _Data
   8  0000              @HCCINIT0_Data .section 'data'
   8  0000  000A[       _Data	db 10 dup(0)
            00
            ]
   8  000A              #pragma debug array 42 8 10 1
   8  000A              #pragma debug array 42 8 10 1
   8  000A              #pragma debug variable 42 1 _Data "Data"
   8  000A              
   8  0000              @HCCINIT .section 'data'
   7  0000              #line 7 "D:\Wade\Project\Robot_Arm\Holtek_MCU\Program\Robot_Arm_Main_v6\Robot_Arm_Main_v6.c"
   7  0000              public _R_Data
   7  0000              @HCCINIT0_R_Data .section 'data'
   7  0000  000A[       _R_Data	db 10 dup(0)
            00
            ]
   7  000A              #pragma debug variable 42 1 _R_Data "R_Data"
   7  000A              
   7  0000              @HCCINIT .section 'data'
   7  0000              #pragma debug struct_end
   7  0000              #pragma debug struct_end
   7  0000              #pragma debug union_end
   7  0000              #pragma debug union_end
   7  0000              #pragma debug variable 44 1 ___intc0 "__intc0" 1
   7  0000              #pragma debug struct_end
   7  0000              #pragma debug struct_end
   7  0000              #pragma debug union_end
   7  0000              #pragma debug union_end
   7  0000              #pragma debug variable 46 1 ___intc3 "__intc3" 1
   7  0000              #pragma debug struct_end
   7  0000              #pragma debug struct_end
   7  0000              #pragma debug union_end
   7  0000              #pragma debug union_end
   7  0000              #pragma debug variable 48 1 ___pd "__pd" 1
   7  0000              #pragma debug struct_end
   7  0000              #pragma debug struct_end
   7  0000              #pragma debug union_end
   7  0000              #pragma debug union_end
   7  0000              #pragma debug variable 50 1 ___pdc "__pdc" 1
   7  0000              #pragma debug struct_end
   7  0000              #pragma debug struct_end
   7  0000              #pragma debug union_end
   7  0000              #pragma debug union_end
   7  0000              #pragma debug variable 52 1 ___pdpu "__pdpu" 1
   7  0000              #pragma debug struct_end
   7  0000              #pragma debug struct_end
   7  0000              #pragma debug union_end
   7  0000              #pragma debug union_end
   7  0000              #pragma debug variable 54 1 ___pg "__pg" 1
   7  0000              #pragma debug struct_end
   7  0000              #pragma debug struct_end
   7  0000              #pragma debug union_end
   7  0000              #pragma debug union_end
   7  0000              #pragma debug variable 56 1 ___pgc "__pgc" 1
   7  0000              #pragma debug struct_end
   7  0000              #pragma debug struct_end
   7  0000              #pragma debug union_end
"File: Robot_Arm_Main_v6.c  Assembler  Version HGASM0202      Page 25

   7  0000              #pragma debug union_end
   7  0000              #pragma debug variable 58 1 ___mfi4 "__mfi4" 1
   7  0000              #pragma debug struct_end
   7  0000              #pragma debug struct_end
   7  0000              #pragma debug union_end
   7  0000              #pragma debug union_end
   7  0000              #pragma debug variable 60 1 ___mfi5 "__mfi5" 1
   7  0000              #pragma debug struct_end
   7  0000              #pragma debug struct_end
   7  0000              #pragma debug union_end
   7  0000              #pragma debug union_end
   7  0000              #pragma debug variable 62 1 ___scc "__scc" 1
   7  0000              #pragma debug struct_end
   7  0000              #pragma debug struct_end
   7  0000              #pragma debug union_end
   7  0000              #pragma debug union_end
   7  0000              #pragma debug variable 64 1 ___hircc "__hircc" 1
   7  0000              #pragma debug struct_end
   7  0000              #pragma debug struct_end
   7  0000              #pragma debug union_end
   7  0000              #pragma debug union_end
   7  0000              #pragma debug variable 66 1 ___wdtc "__wdtc" 1
   7  0000              #pragma debug struct_end
   7  0000              #pragma debug struct_end
   7  0000              #pragma debug union_end
   7  0000              #pragma debug union_end
   7  0000              #pragma debug variable 68 1 ___ptm0c0 "__ptm0c0" 1
   7  0000              #pragma debug struct_end
   7  0000              #pragma debug struct_end
   7  0000              #pragma debug union_end
   7  0000              #pragma debug union_end
   7  0000              #pragma debug variable 70 1 ___ptm0c1 "__ptm0c1" 1
   7  0000              #pragma debug variable 8 1 ___ptm0al "__ptm0al" 1
   7  0000              #pragma debug variable 8 1 ___ptm0ah "__ptm0ah" 1
   7  0000              #pragma debug struct_end
   7  0000              #pragma debug struct_end
   7  0000              #pragma debug union_end
   7  0000              #pragma debug union_end
   7  0000              #pragma debug variable 72 1 ___ptm0rpl "__ptm0rpl" 1
   7  0000              #pragma debug struct_end
   7  0000              #pragma debug struct_end
   7  0000              #pragma debug union_end
   7  0000              #pragma debug union_end
   7  0000              #pragma debug variable 74 1 ___ptm0rph "__ptm0rph" 1
   7  0000              #pragma debug struct_end
   7  0000              #pragma debug struct_end
   7  0000              #pragma debug union_end
   7  0000              #pragma debug union_end
   7  0000              #pragma debug variable 76 1 ___stm0c0 "__stm0c0" 1
   7  0000              #pragma debug struct_end
   7  0000              #pragma debug struct_end
   7  0000              #pragma debug union_end
   7  0000              #pragma debug union_end
   7  0000              #pragma debug variable 78 1 ___stm0c1 "__stm0c1" 1
   7  0000              #pragma debug variable 8 1 ___stm0al "__stm0al" 1
   7  0000              #pragma debug variable 8 1 ___stm0ah "__stm0ah" 1
   7  0000              #pragma debug struct_end
   7  0000              #pragma debug struct_end
   7  0000              #pragma debug union_end
   7  0000              #pragma debug union_end
"File: Robot_Arm_Main_v6.c  Assembler  Version HGASM0202      Page 26

   7  0000              #pragma debug variable 80 1 ___stm0rp "__stm0rp" 1
   7  0000              #pragma debug struct_end
   7  0000              #pragma debug struct_end
   7  0000              #pragma debug union_end
   7  0000              #pragma debug union_end
   7  0000              #pragma debug variable 82 1 ___u0sr "__u0sr" 1
   7  0000              #pragma debug struct_end
   7  0000              #pragma debug struct_end
   7  0000              #pragma debug union_end
   7  0000              #pragma debug union_end
   7  0000              #pragma debug variable 84 1 ___u0cr1 "__u0cr1" 1
   7  0000              #pragma debug struct_end
   7  0000              #pragma debug struct_end
   7  0000              #pragma debug union_end
   7  0000              #pragma debug union_end
   7  0000              #pragma debug variable 86 1 ___u0cr2 "__u0cr2" 1
   7  0000              #pragma debug variable 8 1 ___txr_rxr0 "__txr_rxr0" 1
   7  0000              #pragma debug variable 8 1 ___brg0 "__brg0" 1
   7  0000              #pragma debug struct_end
   7  0000              #pragma debug struct_end
   7  0000              #pragma debug union_end
   7  0000              #pragma debug union_end
   7  0000              #pragma debug variable 88 1 ___ptm1c0 "__ptm1c0" 1
   7  0000              #pragma debug struct_end
   7  0000              #pragma debug struct_end
   7  0000              #pragma debug union_end
   7  0000              #pragma debug union_end
   7  0000              #pragma debug variable 90 1 ___ptm1c1 "__ptm1c1" 1
   7  0000              #pragma debug variable 8 1 ___ptm1al "__ptm1al" 1
   7  0000              #pragma debug variable 8 1 ___ptm1ah "__ptm1ah" 1
   7  0000              #pragma debug struct_end
   7  0000              #pragma debug struct_end
   7  0000              #pragma debug union_end
   7  0000              #pragma debug union_end
   7  0000              #pragma debug variable 92 1 ___ptm1rpl "__ptm1rpl" 1
   7  0000              #pragma debug struct_end
   7  0000              #pragma debug struct_end
   7  0000              #pragma debug union_end
   7  0000              #pragma debug union_end
   7  0000              #pragma debug variable 94 1 ___ptm1rph "__ptm1rph" 1
   7  0000              #pragma debug struct_end
   7  0000              #pragma debug struct_end
   7  0000              #pragma debug union_end
   7  0000              #pragma debug union_end
   7  0000              #pragma debug variable 96 1 ___ptm2c0 "__ptm2c0" 1
   7  0000              #pragma debug struct_end
   7  0000              #pragma debug struct_end
   7  0000              #pragma debug union_end
   7  0000              #pragma debug union_end
   7  0000              #pragma debug variable 98 1 ___ptm2c1 "__ptm2c1" 1
   7  0000              #pragma debug variable 8 1 ___ptm2al "__ptm2al" 1
   7  0000              #pragma debug variable 8 1 ___ptm2ah "__ptm2ah" 1
   7  0000              #pragma debug struct_end
   7  0000              #pragma debug struct_end
   7  0000              #pragma debug union_end
   7  0000              #pragma debug union_end
   7  0000              #pragma debug variable 100 1 ___ptm2rpl "__ptm2rpl" 1
   7  0000              #pragma debug struct_end
   7  0000              #pragma debug struct_end
   7  0000              #pragma debug union_end
"File: Robot_Arm_Main_v6.c  Assembler  Version HGASM0202      Page 27

   7  0000              #pragma debug union_end
   7  0000              #pragma debug variable 102 1 ___ptm2rph "__ptm2rph" 1
   7  0000              #pragma debug struct_end
   7  0000              #pragma debug struct_end
   7  0000              #pragma debug union_end
   7  0000              #pragma debug union_end
   7  0000              #pragma debug variable 104 1 ___ptm3c0 "__ptm3c0" 1
   7  0000              #pragma debug struct_end
   7  0000              #pragma debug struct_end
   7  0000              #pragma debug union_end
   7  0000              #pragma debug union_end
   7  0000              #pragma debug variable 106 1 ___ptm3c1 "__ptm3c1" 1
   7  0000              #pragma debug variable 8 1 ___ptm3al "__ptm3al" 1
   7  0000              #pragma debug variable 8 1 ___ptm3ah "__ptm3ah" 1
   7  0000              #pragma debug struct_end
   7  0000              #pragma debug struct_end
   7  0000              #pragma debug union_end
   7  0000              #pragma debug union_end
   7  0000              #pragma debug variable 108 1 ___stm1c0 "__stm1c0" 1
   7  0000              #pragma debug struct_end
   7  0000              #pragma debug struct_end
   7  0000              #pragma debug union_end
   7  0000              #pragma debug union_end
   7  0000              #pragma debug variable 110 1 ___stm1c1 "__stm1c1" 1
   7  0000              #pragma debug variable 8 1 ___stm1al "__stm1al" 1
   7  0000              #pragma debug variable 8 1 ___stm1ah "__stm1ah" 1
   7  0000              #pragma debug struct_end
   7  0000              #pragma debug struct_end
   7  0000              #pragma debug union_end
   7  0000              #pragma debug union_end
   7  0000              #pragma debug variable 112 1 ___stm1rp "__stm1rp" 1
   7  0000              #pragma debug struct_end
   7  0000              #pragma debug struct_end
   7  0000              #pragma debug union_end
   7  0000              #pragma debug union_end
   7  0000              #pragma debug variable 114 1 ___stm2c0 "__stm2c0" 1
   7  0000              #pragma debug struct_end
   7  0000              #pragma debug struct_end
   7  0000              #pragma debug union_end
   7  0000              #pragma debug union_end
   7  0000              #pragma debug variable 116 1 ___stm2c1 "__stm2c1" 1
   7  0000              #pragma debug variable 8 1 ___stm2al "__stm2al" 1
   7  0000              #pragma debug variable 8 1 ___stm2ah "__stm2ah" 1
   7  0000              #pragma debug struct_end
   7  0000              #pragma debug struct_end
   7  0000              #pragma debug union_end
   7  0000              #pragma debug union_end
   7  0000              #pragma debug variable 118 1 ___stm2rp "__stm2rp" 1
   7  0000              #pragma debug struct_end
   7  0000              #pragma debug struct_end
   7  0000              #pragma debug union_end
   7  0000              #pragma debug union_end
   7  0000              #pragma debug variable 120 1 ___pas1 "__pas1" 1
   7  0000              #pragma debug struct_end
   7  0000              #pragma debug struct_end
   7  0000              #pragma debug union_end
   7  0000              #pragma debug union_end
   7  0000              #pragma debug variable 122 1 ___pcs0 "__pcs0" 1
   7  0000              #pragma debug struct_end
   7  0000              #pragma debug struct_end
"File: Robot_Arm_Main_v6.c  Assembler  Version HGASM0202      Page 28

   7  0000              #pragma debug union_end
   7  0000              #pragma debug union_end
   7  0000              #pragma debug variable 124 1 ___pcs1 "__pcs1" 1
   7  0000              #pragma debug struct_end
   7  0000              #pragma debug struct_end
   7  0000              #pragma debug union_end
   7  0000              #pragma debug union_end
   7  0000              #pragma debug variable 126 1 ___pds0 "__pds0" 1
   7  0000              #pragma debug struct_end
   7  0000              #pragma debug struct_end
   7  0000              #pragma debug union_end
   7  0000              #pragma debug union_end
   7  0000              #pragma debug variable 128 1 ___pfs1 "__pfs1" 1
   7  0000              extern r1:byte
   7  0000              extern r2:byte
   7  0000              extern r3:byte
   7  0000              extern r4:byte
   7  0000              extern r5:byte
   7  0000              extern r6:byte
   7  0000              extern r7:byte
  48  0000              #line 48 "D:\Wade\Project\Robot_Arm\Holtek_MCU\Program\Robot_Arm_Main_v6\Robot_Arm_Main_v6.c"
  48  0000              @code .section at 0 'code'
  48  0000  1F0B        	clr bp
  48  0001  2800     R  	jmp _main_startup1
  48  0002              
  48  0002              
  48  0002              ; 
  48  0002              ; Generated by holtek-gcc v3.19, Wed Jan 12 12:29:25 2022
  48  0002              ; Rebuild 718
  48  0002              ; end of file


        0 Errors, 0