"File: Arm_Banch_Sensor.c  Assembler  Version HGASM0202      Page 1


   1  0000              ; Generated by holtek-gcc v3.19, Tue Apr 13 16:10:40 2021
   2  0000              ; 
   3  0000              ; Configuration:
   4  0000              ;       with long instruction
   5  0000              ;       Multi-ROM, Multi-RAM
   6  0000              ;       bits_per_rom_unit:16
   7  0000              ;       with mp1
   8  0000              ;       with tbhp, address(0x9)
   9  0000              ;          Use tabrd-const
  10  0000              ;       
  11  0000              ; SFR address of long-instruction arch:
  12  0000              ;    mp0 = -1,1,0
  13  0000              ;    mp1 = 4,3,2
  14  0000              ;    mp2 = 14,13,12
  15  0000              ;    tbp = 9,7,8
  16  0000              ;    acc = 5
  17  0000              ;    pcl = 6
  18  0000              ;    status = 10
  19  0000              ;    bp = 11
  20  0000              ;    intc = 16
  21  0000              ;       
  22  0000              ;       
  23  0000              ; use 'tabrdc' instead of 'tabrd'
  24  0000              ;       
  25  0000              
  26  0000              #pragma translator "holtek-gcc 4.6.4" "3.19" "build 20130711"
  27  0000              ; Rebuild 718
  28  0000              
  29  0000              ir equ [2]
  30  0000              mp equ [3]
  31  0000              sbp equ [4]
  32  0000              acc equ [5]
  33  0000              bp equ [11]
  34  0000              tblp equ [7]
  35  0000              tbhp equ [9]
  36  0000              status equ [10]
  37  0000              c equ [10].0
  38  0000              ac equ [10].1
  39  0000              z equ [10].2
  40  0000              ov equ [10].3
  41  0000              cz equ [10].6
  42  0000              sc equ [10].7
  43  0000              intc equ [16]
  44  0000              mduwr0 equ [59h]
  45  0000              mduwr1 equ [5ah]
  46  0000              mduwr2 equ [5bh]
  47  0000              mduwr3 equ [5ch]
  48  0000              mduwr4 equ [5dh]
  49  0000              mduwr5 equ [5eh]
  50  0000              mduwrctrl equ [5fh]
  51  0000              
  52  0000              extern ra:byte
  53  0000              extern rb:byte
  54  0000              extern rc:byte
  55  0000              extern rd:byte
  56  0000              extern re:byte
  57  0000              extern rf:byte
  58  0000              extern rg:byte
  59  0000              extern rh:byte
"File: Arm_Banch_Sensor.ASM  Assembler  Version HGASM0202      Page 2

  60  0000              extern _Crom2Prom:near
  61  0000              extern _Crom2PromNext:near
  62  0000              
  63  0000              RAMBANK 0 @BITDATASEC, @BITDATASEC1
  64  0000              @HCCINIT	.section 'data'
  65  0000              @HCCINIT0	.section 'data'
  66  0000              @BITDATASEC	 .section 'data'
  67  0000              @BITDATASEC1	 .section 'data'
  68  0000              
  69  0000              #pragma debug scope 1 1
  70  0000              	extern __DELAY3:near
  71  0000              	extern __DELAYX3:near
  72  0000              	extern __DELAYX6:near
  73  0000              	extern __DELAYY5:near
  74  0000              	extern __DELAYY3:near
  75  0000              	extern _builtin_holtek_delay_2:byte
  76  0000              ___sadoh equ [104]
  77  0000              ___sadol equ [103]
  78  0000              public _ISR_ADC
  79  0000              #pragma debug scope 2 1

  72  0000              #line 72 "D:\Wade\Work\MCU\Holtek MCU\Robot Arm Project\Program\Arm_Banch_Sensor\Arm_Banch_Sensor.c"
  72  0000              rombank 0 @ISR_ADC_code
  72  0000              @ISR_ADC_code .section at 28 'code'
  72  0000  0080     E  	mov r1,a
  72  0001  070B        	mov a,bp
  72  0002  1F0B        	clr bp
  72  0003  2800     R  	jmp _ISR_ADC
  72  0004              ROMBANK 0 _ISR_ADC
  72  0004              #pragma debug scope 1 1
  72  0004              @dummy28 endp
  72  0004              #pragma debug scope 3 1
  72  0000              _ISR_ADC .section 'code'
  72  0000              _ISR_ADC proc
  72  0000  0080     E  	mov r2,a
  72  0001  070A        	mov a, status
  72  0002  0080     E  	mov r3,a
  73  0003              #line 73 "D:\Wade\Work\MCU\Holtek MCU\Robot Arm Project\Program\Arm_Banch_Sensor\Arm_Banch_Sensor.c"
  73  0003  0768        	mov a,[104]
  73  0004  0080     E  	mov rc,a
  73  0005  1F00     E  	clr rb
  73  0006  0700     E  	mov a,rc
  73  0007  0080     R  	mov _cv[1],a
  73  0008  0767        	mov a,[103]
  73  0009  0500     E  	or a,rb
  73  000A  0080     R  	mov _cv[0],a
  73  000B  0700     E  	mov a,r2
  73  000C  008B        	mov bp,a
  73  000D  0700     E  	mov a,r3
  73  000E  008A        	mov status,a
  73  000F  0700     E  	mov a,r1
  73  0010  0004        	reti
  73  0011              _ISR_ADC endp
  73  0011              
  73  0011              #line 73 "D:\Wade\Work\MCU\Holtek MCU\Robot Arm Project\Program\Arm_Banch_Sensor\Arm_Banch_Sensor.c"
  73  0011              #pragma debug scope 1 1
  73  0011              ___pcs0 equ [337]
  73  0011              ___sadc0 equ [105]
  73  0011              ___sadc1 equ [106]
  73  0011              ___sadc2 equ [107]
"File: Arm_Banch_Sensor.c  Assembler  Version HGASM0202      Page 3

  73  0011              ___intc1 equ [17]
  73  0011              ___intc0 equ [16]
  73  0011              public _ADC_setup
  73  0011              #pragma debug scope 4 1
  77  0011              #line 77 "D:\Wade\Work\MCU\Holtek MCU\Robot Arm Project\Program\Arm_Banch_Sensor\Arm_Banch_Sensor.c"
  77  0000              _ADC_setup .section 'code'
  77  0000              _ADC_setup proc
  78  0000              #line 78 "D:\Wade\Work\MCU\Holtek MCU\Robot Arm Project\Program\Arm_Banch_Sensor\Arm_Banch_Sensor.c"
  78  0000  0F0F        	mov a,15
  78  0001  80D1 0001   	lmov [337],a
  79  0003              #line 79 "D:\Wade\Work\MCU\Holtek MCU\Robot Arm Project\Program\Arm_Banch_Sensor\Arm_Banch_Sensor.c"
  79  0003  0F70        	mov a,112
  79  0004  00E9        	mov [105],a
  80  0005              #line 80 "D:\Wade\Work\MCU\Holtek MCU\Robot Arm Project\Program\Arm_Banch_Sensor\Arm_Banch_Sensor.c"
  80  0005  0F06        	mov a,6
  80  0006  00EA        	mov [106],a
  81  0007              #line 81 "D:\Wade\Work\MCU\Holtek MCU\Robot Arm Project\Program\Arm_Banch_Sensor\Arm_Banch_Sensor.c"
  81  0007  1F6B        	clr [107]
  82  0008              #line 82 "D:\Wade\Work\MCU\Holtek MCU\Robot Arm Project\Program\Arm_Banch_Sensor\Arm_Banch_Sensor.c"
  82  0008  3191        	set [17].3
  82  0009  3010        	set [16].0
  82  000A  0003        	ret
  82  000B              _ADC_setup endp
  82  000B              #line 82 "D:\Wade\Work\MCU\Holtek MCU\Robot Arm Project\Program\Arm_Banch_Sensor\Arm_Banch_Sensor.c"
  82  000B              #pragma debug scope 1 1
  82  000B              public _delay
  82  000B              #pragma debug scope 5 1
 109  000B              #line 109 "D:\Wade\Work\MCU\Holtek MCU\Robot Arm Project\Program\Arm_Banch_Sensor\Arm_Banch_Sensor.c"
 109  0000              _delay .section 'code'
 109  0000              _delay proc
 109  0000              public _delay_2
 109  0000  0002[           local _delay_2 db 2 dup(?)	; 2,0
            00
            ]
 109  0002              #pragma debug variable 10 5 _delay_2+0 "var"
 111  0002              #line 111 "D:\Wade\Work\MCU\Holtek MCU\Robot Arm Project\Program\Arm_Banch_Sensor\Arm_Banch_Sensor.c"
 111  0000  1F00     E  	clr rb
 111  0001  1F00     E  	clr rc
 111  0002              _L4:
 111  0002              #line 111 "D:\Wade\Work\MCU\Holtek MCU\Robot Arm Project\Program\Arm_Banch_Sensor\Arm_Banch_Sensor.c"
 111  0002  0700     E  	mov a,rb
 111  0003  0200     R  	sub a,_delay_2[0]
 111  0004  0700     E  	mov a,rc
 111  0005  1200     R  	sbc a,_delay_2[1]
 111  0006  3F0A        	sz cz
 111  0007  2800     R  	jmp _L3
 111  0008  1F00     E  	clr ra
 111  0009              _L7:
 113  0009              #line 113 "D:\Wade\Work\MCU\Holtek MCU\Robot Arm Project\Program\Arm_Banch_Sensor\Arm_Banch_Sensor.c"
 113  0009              ;# 113 "D:\Wade\Work\MCU\Holtek MCU\Robot Arm Project\Program\Arm_Banch_Sensor\Arm_Banch_Sensor.c" 1
 113  0009  0000        	nop
 113  000A  1480     E  	inc ra
 112  000B              #line 112 "D:\Wade\Work\MCU\Holtek MCU\Robot Arm Project\Program\Arm_Banch_Sensor\Arm_Banch_Sensor.c"
 112  000B  0700     E  	mov a,ra
 112  000C  0A19        	sub a,25
 112  000D  390A        	snz z
 112  000E  2800     R  	jmp _L7
 111  000F              #line 111 "D:\Wade\Work\MCU\Holtek MCU\Robot Arm Project\Program\Arm_Banch_Sensor\Arm_Banch_Sensor.c"
 111  000F  1480     E  	inc rb
 111  0010  3D0A        	sz z
"File: Arm_Banch_Sensor.c  Assembler  Version HGASM0202      Page 4

 111  0011  1480     E  	inc rc
 111  0012  2800     R  	jmp _L4
 111  0013              _L3:
 111  0013  0003        	ret
 111  0014              _delay endp
 111  0014              #line 111 "D:\Wade\Work\MCU\Holtek MCU\Robot Arm Project\Program\Arm_Banch_Sensor\Arm_Banch_Sensor.c"
 111  0014              #pragma debug scope 1 1
 111  0014              ___pf equ [36]
 111  0014              ___pg equ [39]
 111  0014              public _segment
 111  0014              #pragma debug scope 6 1
  86  0014              #line 86 "D:\Wade\Work\MCU\Holtek MCU\Robot Arm Project\Program\Arm_Banch_Sensor\Arm_Banch_Sensor.c"
  86  0000              _segment .section 'code'
  86  0000              _segment proc
  86  0000              public _segment_2
  86  0000  0002[           local _segment_2 db 2 dup(?)	; 2,0
            00
            ]
  86  0002              #pragma debug variable 10 6 _segment_2+0 "value"
  87  0002              #line 87 "D:\Wade\Work\MCU\Holtek MCU\Robot Arm Project\Program\Arm_Banch_Sensor\Arm_Banch_Sensor.c"
  87  0000  3024        	set [36].0
  88  0001              #line 88 "D:\Wade\Work\MCU\Holtek MCU\Robot Arm Project\Program\Arm_Banch_Sensor\Arm_Banch_Sensor.c"
  88  0001  1B10        	rrca intc
  88  0002  3410        	clr intc.0
  88  0003  0700     R  	mov a,_segment_2[0]
  88  0004  00D9        	mov mduwr0,a
  88  0005  0700     R  	mov a,_segment_2[1]
  88  0006  00DA        	mov mduwr1,a
  88  0007  0FE8        	mov a,232
  88  0008  00DD        	mov mduwr4,a
  88  0009  0F03        	mov a,3
  88  000A  00DE        	mov mduwr5,a
  88  000B  0F06        	mov a,6
  88  000C              _LI1:
  88  000C  1785        	sdz acc
  88  000D  2800     R  	jmp _LI1
  88  000E  0759        	mov a,mduwr0
  88  000F  0080     E  	mov rb,a
  88  0010  075A        	mov a,mduwr1
  88  0011  0080     E  	mov rc,a
  88  0012  3C0A        	sz c
  88  0013  3010        	set intc.0
  88  0014  1B10        	rrca intc
  88  0015  3410        	clr intc.0
  88  0016  0700     E  	mov a,rb
  88  0017  00D9        	mov mduwr0,a
  88  0018  0700     E  	mov a,rc
  88  0019  00DA        	mov mduwr1,a
  88  001A  0F0A        	mov a,10
  88  001B  00DD        	mov mduwr4,a
  88  001C  0F00        	mov a,0
  88  001D  00DE        	mov mduwr5,a
  88  001E  0F06        	mov a,6
  88  001F              _LI2:
  88  001F  1785        	sdz acc
  88  0020  2800     R  	jmp _LI2
  88  0021  075D        	mov a,mduwr4
  88  0022  0080     E  	mov rb,a
  88  0023  075E        	mov a,mduwr5
  88  0024  0080     E  	mov rc,a
"File: Arm_Banch_Sensor.c  Assembler  Version HGASM0202      Page 5

  88  0025  3C0A        	sz c
  88  0026  3010        	set intc.0
  88  0027  340A        	clr c
  88  0028  1A80     E  	rlc rb
  88  0029  1A80     E  	rlc rc
  88  002A  0F00     R  	mov a,low offset _tag
  88  002B  0300     E  	add a,rb
  88  002C  0083        	mov mp,a
  88  002D  0F00     R  	mov a,high offset _tag
  88  002E  1300     E  	adc a,rc
  88  002F  0084        	mov sbp,a
  88  0030              	fcall _Crom2Prom
  88  0037  00A7        	mov [39],a
  89  0038              #line 89 "D:\Wade\Work\MCU\Holtek MCU\Robot Arm Project\Program\Arm_Banch_Sensor\Arm_Banch_Sensor.c"
  89  0038  0F1E        	mov a,30
  89  0039  0080     R  	mov _delay_2[0],a
  89  003A  1F00     R  	clr _delay_2[1]
  89  003B              	fcall _delay
  90  0042              #line 90 "D:\Wade\Work\MCU\Holtek MCU\Robot Arm Project\Program\Arm_Banch_Sensor\Arm_Banch_Sensor.c"
  90  0042  3424        	clr [36].0
  92  0043              #line 92 "D:\Wade\Work\MCU\Holtek MCU\Robot Arm Project\Program\Arm_Banch_Sensor\Arm_Banch_Sensor.c"
  92  0043  30A4        	set [36].1
  93  0044              #line 93 "D:\Wade\Work\MCU\Holtek MCU\Robot Arm Project\Program\Arm_Banch_Sensor\Arm_Banch_Sensor.c"
  93  0044  1B10        	rrca intc
  93  0045  3410        	clr intc.0
  93  0046  0700     R  	mov a,_segment_2[0]
  93  0047  00D9        	mov mduwr0,a
  93  0048  0700     R  	mov a,_segment_2[1]
  93  0049  00DA        	mov mduwr1,a
  93  004A  0F64        	mov a,100
  93  004B  00DD        	mov mduwr4,a
  93  004C  0F00        	mov a,0
  93  004D  00DE        	mov mduwr5,a
  93  004E  0F06        	mov a,6
  93  004F              _LI3:
  93  004F  1785        	sdz acc
  93  0050  2800     R  	jmp _LI3
  93  0051  0759        	mov a,mduwr0
  93  0052  0080     E  	mov rb,a
  93  0053  075A        	mov a,mduwr1
  93  0054  0080     E  	mov rc,a
  93  0055  3C0A        	sz c
  93  0056  3010        	set intc.0
  93  0057  1B10        	rrca intc
  93  0058  3410        	clr intc.0
  93  0059  0700     E  	mov a,rb
  93  005A  00D9        	mov mduwr0,a
  93  005B  0700     E  	mov a,rc
  93  005C  00DA        	mov mduwr1,a
  93  005D  0F0A        	mov a,10
  93  005E  00DD        	mov mduwr4,a
  93  005F  0F00        	mov a,0
  93  0060  00DE        	mov mduwr5,a
  93  0061  0F06        	mov a,6
  93  0062              _LI4:
  93  0062  1785        	sdz acc
  93  0063  2800     R  	jmp _LI4
  93  0064  075D        	mov a,mduwr4
  93  0065  0080     E  	mov rb,a
  93  0066  075E        	mov a,mduwr5
"File: Arm_Banch_Sensor.c  Assembler  Version HGASM0202      Page 6

  93  0067  0080     E  	mov rc,a
  93  0068  3C0A        	sz c
  93  0069  3010        	set intc.0
  93  006A  340A        	clr c
  93  006B  1A80     E  	rlc rb
  93  006C  1A80     E  	rlc rc
  93  006D  0F00     R  	mov a,low offset _tag
  93  006E  0300     E  	add a,rb
  93  006F  0083        	mov mp,a
  93  0070  0F00     R  	mov a,high offset _tag
  93  0071  1300     E  	adc a,rc
  93  0072  0084        	mov sbp,a
  93  0073              	fcall _Crom2Prom
  93  007A  00A7        	mov [39],a
  94  007B              #line 94 "D:\Wade\Work\MCU\Holtek MCU\Robot Arm Project\Program\Arm_Banch_Sensor\Arm_Banch_Sensor.c"
  94  007B  0F1E        	mov a,30
  94  007C  0080     R  	mov _delay_2[0],a
  94  007D  1F00     R  	clr _delay_2[1]
  94  007E              	fcall _delay
  95  0085              #line 95 "D:\Wade\Work\MCU\Holtek MCU\Robot Arm Project\Program\Arm_Banch_Sensor\Arm_Banch_Sensor.c"
  95  0085  34A4        	clr [36].1
  97  0086              #line 97 "D:\Wade\Work\MCU\Holtek MCU\Robot Arm Project\Program\Arm_Banch_Sensor\Arm_Banch_Sensor.c"
  97  0086  3124        	set [36].2
  98  0087              #line 98 "D:\Wade\Work\MCU\Holtek MCU\Robot Arm Project\Program\Arm_Banch_Sensor\Arm_Banch_Sensor.c"
  98  0087  1B10        	rrca intc
  98  0088  3410        	clr intc.0
  98  0089  0700     R  	mov a,_segment_2[0]
  98  008A  00D9        	mov mduwr0,a
  98  008B  0700     R  	mov a,_segment_2[1]
  98  008C  00DA        	mov mduwr1,a
  98  008D  0F0A        	mov a,10
  98  008E  00DD        	mov mduwr4,a
  98  008F  0F00        	mov a,0
  98  0090  00DE        	mov mduwr5,a
  98  0091  0F06        	mov a,6
  98  0092              _LI5:
  98  0092  1785        	sdz acc
  98  0093  2800     R  	jmp _LI5
  98  0094  0759        	mov a,mduwr0
  98  0095  0080     E  	mov rb,a
  98  0096  075A        	mov a,mduwr1
  98  0097  0080     E  	mov rc,a
  98  0098  3C0A        	sz c
  98  0099  3010        	set intc.0
  98  009A  1B10        	rrca intc
  98  009B  3410        	clr intc.0
  98  009C  0700     E  	mov a,rb
  98  009D  00D9        	mov mduwr0,a
  98  009E  0700     E  	mov a,rc
  98  009F  00DA        	mov mduwr1,a
  98  00A0  0F0A        	mov a,10
  98  00A1  00DD        	mov mduwr4,a
  98  00A2  0F00        	mov a,0
  98  00A3  00DE        	mov mduwr5,a
  98  00A4  0F06        	mov a,6
  98  00A5              _LI6:
  98  00A5  1785        	sdz acc
  98  00A6  2800     R  	jmp _LI6
  98  00A7  075D        	mov a,mduwr4
  98  00A8  0080     E  	mov rb,a
"File: Arm_Banch_Sensor.c  Assembler  Version HGASM0202      Page 7

  98  00A9  075E        	mov a,mduwr5
  98  00AA  0080     E  	mov rc,a
  98  00AB  3C0A        	sz c
  98  00AC  3010        	set intc.0
  98  00AD  340A        	clr c
  98  00AE  1A80     E  	rlc rb
  98  00AF  1A80     E  	rlc rc
  98  00B0  0F00     R  	mov a,low offset _tag
  98  00B1  0300     E  	add a,rb
  98  00B2  0083        	mov mp,a
  98  00B3  0F00     R  	mov a,high offset _tag
  98  00B4  1300     E  	adc a,rc
  98  00B5  0084        	mov sbp,a
  98  00B6              	fcall _Crom2Prom
  98  00BD  00A7        	mov [39],a
  99  00BE              #line 99 "D:\Wade\Work\MCU\Holtek MCU\Robot Arm Project\Program\Arm_Banch_Sensor\Arm_Banch_Sensor.c"
  99  00BE  0F1E        	mov a,30
  99  00BF  0080     R  	mov _delay_2[0],a
  99  00C0  1F00     R  	clr _delay_2[1]
  99  00C1              	fcall _delay
 100  00C8              #line 100 "D:\Wade\Work\MCU\Holtek MCU\Robot Arm Project\Program\Arm_Banch_Sensor\Arm_Banch_Sensor.c"
 100  00C8  3524        	clr [36].2
 102  00C9              #line 102 "D:\Wade\Work\MCU\Holtek MCU\Robot Arm Project\Program\Arm_Banch_Sensor\Arm_Banch_Sensor.c"
 102  00C9  31A4        	set [36].3
 103  00CA              #line 103 "D:\Wade\Work\MCU\Holtek MCU\Robot Arm Project\Program\Arm_Banch_Sensor\Arm_Banch_Sensor.c"
 103  00CA  1B10        	rrca intc
 103  00CB  3410        	clr intc.0
 103  00CC  0700     R  	mov a,_segment_2[0]
 103  00CD  00D9        	mov mduwr0,a
 103  00CE  0700     R  	mov a,_segment_2[1]
 103  00CF  00DA        	mov mduwr1,a
 103  00D0  0F0A        	mov a,10
 103  00D1  00DD        	mov mduwr4,a
 103  00D2  0F00        	mov a,0
 103  00D3  00DE        	mov mduwr5,a
 103  00D4  0F06        	mov a,6
 103  00D5              _LI7:
 103  00D5  1785        	sdz acc
 103  00D6  2800     R  	jmp _LI7
 103  00D7  075D        	mov a,mduwr4
 103  00D8  0080     E  	mov rb,a
 103  00D9  075E        	mov a,mduwr5
 103  00DA  0080     E  	mov rc,a
 103  00DB  3C0A        	sz c
 103  00DC  3010        	set intc.0
 103  00DD  340A        	clr c
 103  00DE  1A80     E  	rlc rb
 103  00DF  1A80     E  	rlc rc
 103  00E0  0F00     R  	mov a,low offset _tag
 103  00E1  0300     E  	add a,rb
 103  00E2  0083        	mov mp,a
 103  00E3  0F00     R  	mov a,high offset _tag
 103  00E4  1300     E  	adc a,rc
 103  00E5  0084        	mov sbp,a
 103  00E6              	fcall _Crom2Prom
 103  00ED  00A7        	mov [39],a
 104  00EE              #line 104 "D:\Wade\Work\MCU\Holtek MCU\Robot Arm Project\Program\Arm_Banch_Sensor\Arm_Banch_Sensor.c"
 104  00EE  0F1E        	mov a,30
 104  00EF  0080     R  	mov _delay_2[0],a
 104  00F0  1F00     R  	clr _delay_2[1]
"File: Arm_Banch_Sensor.c  Assembler  Version HGASM0202      Page 8

 104  00F1              	fcall _delay
 105  00F8              #line 105 "D:\Wade\Work\MCU\Holtek MCU\Robot Arm Project\Program\Arm_Banch_Sensor\Arm_Banch_Sensor.c"
 105  00F8  35A4        	clr [36].3
 105  00F9  0003        	ret
 105  00FA              _segment endp
 105  00FA              #line 105 "D:\Wade\Work\MCU\Holtek MCU\Robot Arm Project\Program\Arm_Banch_Sensor\Arm_Banch_Sensor.c"
 105  00FA              #pragma debug scope 1 1
 105  00FA              ___wdtc equ [62]
 105  00FA              ___pgc equ [40]
 105  00FA              ___pfc equ [37]
 105  00FA              ___ph equ [42]
 105  00FA              public _main
 105  00FA              #pragma debug scope 7 1
  23  00FA              #line 23 "D:\Wade\Work\MCU\Holtek MCU\Robot Arm Project\Program\Arm_Banch_Sensor\Arm_Banch_Sensor.c"
  23  00FA              IFDEF WITH_DEFAULT_STARTUP
  23  00FA              extern _main_initial0:near
  23  00FA              extern _main_startup:near
  23  00FA              ENDIF
  23  00FA              
  23  00FA              ROMBANK 0 @start
  23  0000              @start .section com_l 'code'
  23  0000              _main_startup1:
  23  0000              @start .section com_e 'code'
  23  0000  0F00     R  	mov a,bank _main
  23  0001  008B        	mov bp,a
  23  0002  2800     R  	jmp _main
  23  0003              
  23  0000              _main .section 'code'
  23  0000              _main proc
  23  0000  0004[           local _main_2 db 4 dup(?)
            00
            ]
  23  0004              #pragma debug variable 10 7 _main_2+0 "t"
  23  0004              #pragma debug variable 10 7 _main_2+2 "chanl"
  24  0004              #line 24 "D:\Wade\Work\MCU\Holtek MCU\Robot Arm Project\Program\Arm_Banch_Sensor\Arm_Banch_Sensor.c"
  24  0000  0FAB        	mov a,171
  24  0001  00BE        	mov [62],a
  26  0002              #line 26 "D:\Wade\Work\MCU\Holtek MCU\Robot Arm Project\Program\Arm_Banch_Sensor\Arm_Banch_Sensor.c"
  26  0002              	fcall _ADC_setup
  27  0009              #line 27 "D:\Wade\Work\MCU\Holtek MCU\Robot Arm Project\Program\Arm_Banch_Sensor\Arm_Banch_Sensor.c"
  27  0009  1F28        	clr [40]
  28  000A              #line 28 "D:\Wade\Work\MCU\Holtek MCU\Robot Arm Project\Program\Arm_Banch_Sensor\Arm_Banch_Sensor.c"
  28  000A  1F25        	clr [37]
  31  000B              #line 31 "D:\Wade\Work\MCU\Holtek MCU\Robot Arm Project\Program\Arm_Banch_Sensor\Arm_Banch_Sensor.c"
  31  000B  1F00     R  	clr _main_2[2]
  31  000C  1F00     R  	clr _main_2[3]
  30  000D              #line 30 "D:\Wade\Work\MCU\Holtek MCU\Robot Arm Project\Program\Arm_Banch_Sensor\Arm_Banch_Sensor.c"
  30  000D  1F00     R  	clr _main_2[0]
  30  000E  1F00     R  	clr _main_2[1]
  30  000F              _L15:
  36  000F              #line 36 "D:\Wade\Work\MCU\Holtek MCU\Robot Arm Project\Program\Arm_Banch_Sensor\Arm_Banch_Sensor.c"
  36  000F  0700     R  	mov a,_main_2[0]
  36  0010  0C0F        	xor a,15
  36  0011  0500     R  	or a,_main_2[1]
  36  0012  390A        	snz z
  36  0013  2800     R  	jmp _L11
  39  0014              #line 39 "D:\Wade\Work\MCU\Holtek MCU\Robot Arm Project\Program\Arm_Banch_Sensor\Arm_Banch_Sensor.c"
  39  0014  0F70        	mov a,112
  39  0015  00E9        	mov [105],a
  40  0016              #line 40 "D:\Wade\Work\MCU\Holtek MCU\Robot Arm Project\Program\Arm_Banch_Sensor\Arm_Banch_Sensor.c"
"File: Arm_Banch_Sensor.c  Assembler  Version HGASM0202      Page 9

  40  0016  33E9        	set [105].7
  41  0017              #line 41 "D:\Wade\Work\MCU\Holtek MCU\Robot Arm Project\Program\Arm_Banch_Sensor\Arm_Banch_Sensor.c"
  41  0017  37E9        	clr [105].7
  38  0018              #line 38 "D:\Wade\Work\MCU\Holtek MCU\Robot Arm Project\Program\Arm_Banch_Sensor\Arm_Banch_Sensor.c"
  38  0018  1F00     R  	clr _main_2[2]
  38  0019  1F00     R  	clr _main_2[3]
  38  001A  2800     R  	jmp _L16
  38  001B              _L11:
  45  001B              #line 45 "D:\Wade\Work\MCU\Holtek MCU\Robot Arm Project\Program\Arm_Banch_Sensor\Arm_Banch_Sensor.c"
  45  001B  0700     R  	mov a,_main_2[0]
  45  001C  0C1E        	xor a,30
  45  001D  0500     R  	or a,_main_2[1]
  45  001E  390A        	snz z
  45  001F  2800     R  	jmp _L12
  48  0020              #line 48 "D:\Wade\Work\MCU\Holtek MCU\Robot Arm Project\Program\Arm_Banch_Sensor\Arm_Banch_Sensor.c"
  48  0020  0F71        	mov a,113
  48  0021  00E9        	mov [105],a
  49  0022              #line 49 "D:\Wade\Work\MCU\Holtek MCU\Robot Arm Project\Program\Arm_Banch_Sensor\Arm_Banch_Sensor.c"
  49  0022  33E9        	set [105].7
  50  0023              #line 50 "D:\Wade\Work\MCU\Holtek MCU\Robot Arm Project\Program\Arm_Banch_Sensor\Arm_Banch_Sensor.c"
  50  0023  37E9        	clr [105].7
  47  0024              #line 47 "D:\Wade\Work\MCU\Holtek MCU\Robot Arm Project\Program\Arm_Banch_Sensor\Arm_Banch_Sensor.c"
  47  0024  0F01        	mov a,1
  47  0025  0080     R  	mov _main_2[2],a
  47  0026  1F00     R  	clr _main_2[3]
  47  0027              _L16:
  51  0027              #line 51 "D:\Wade\Work\MCU\Holtek MCU\Robot Arm Project\Program\Arm_Banch_Sensor\Arm_Banch_Sensor.c"
  51  0027  1F00     R  	clr _main_2[0]
  51  0028  1F00     R  	clr _main_2[1]
  51  0029              _L12:
  54  0029              #line 54 "D:\Wade\Work\MCU\Holtek MCU\Robot Arm Project\Program\Arm_Banch_Sensor\Arm_Banch_Sensor.c"
  54  0029  1480     R  	inc _main_2[0]
  54  002A  3D0A        	sz z
  54  002B  1480     R  	inc _main_2[1]
  56  002C              #line 56 "D:\Wade\Work\MCU\Holtek MCU\Robot Arm Project\Program\Arm_Banch_Sensor\Arm_Banch_Sensor.c"
  56  002C  0700     R  	mov a,_main_2[2]
  56  002D  0500     R  	or a,_main_2[3]
  56  002E  390A        	snz z
  56  002F  2800     R  	jmp _L13
  58  0030              #line 58 "D:\Wade\Work\MCU\Holtek MCU\Robot Arm Project\Program\Arm_Banch_Sensor\Arm_Banch_Sensor.c"
  58  0030  30AA        	set [42].1
  59  0031              #line 59 "D:\Wade\Work\MCU\Holtek MCU\Robot Arm Project\Program\Arm_Banch_Sensor\Arm_Banch_Sensor.c"
  59  0031  342A        	clr [42].0
  59  0032  2800     R  	jmp _L14
  59  0033              _L13:
  63  0033              #line 63 "D:\Wade\Work\MCU\Holtek MCU\Robot Arm Project\Program\Arm_Banch_Sensor\Arm_Banch_Sensor.c"
  63  0033  302A        	set [42].0
  64  0034              #line 64 "D:\Wade\Work\MCU\Holtek MCU\Robot Arm Project\Program\Arm_Banch_Sensor\Arm_Banch_Sensor.c"
  64  0034  34AA        	clr [42].1
  64  0035              _L14:
  67  0035              #line 67 "D:\Wade\Work\MCU\Holtek MCU\Robot Arm Project\Program\Arm_Banch_Sensor\Arm_Banch_Sensor.c"
  67  0035  0700     R  	mov a,_cv[0]
  67  0036  0080     R  	mov _segment_2[0],a
  67  0037  0700     R  	mov a,_cv[1]
  67  0038  0080     R  	mov _segment_2[1],a
  67  0039              	fcall _segment
  68  0040              #line 68 "D:\Wade\Work\MCU\Holtek MCU\Robot Arm Project\Program\Arm_Banch_Sensor\Arm_Banch_Sensor.c"
  68  0040  2800     R  	jmp _L15
  68  0041  2800     R  	jmp $
  68  0042              _main endp
"File: Arm_Banch_Sensor.c  Assembler  Version HGASM0202      Page 10

  68  0042              
  68  0042              @dummy endp
  68  0042              
  68  0042              #line 68 "D:\Wade\Work\MCU\Holtek MCU\Robot Arm Project\Program\Arm_Banch_Sensor\Arm_Banch_Sensor.c"
  68  0042              #pragma debug scope 1 1
  20  0042              #line 20 "D:\Wade\Work\MCU\Holtek MCU\Robot Arm Project\Program\Arm_Banch_Sensor\Arm_Banch_Sensor.c"
  20  0042              public _cv
  20  0000              @HCCINIT0_cv .section 'data'
  20  0000  0002[       _cv	db 2 dup(0)
            00
            ]
  20  0002              #pragma debug variable 10 1 _cv "cv"
  20  0002              
  20  0000              @HCCINIT .section 'data'
  20  0000              public _scan
  20  0000              @crom	.section 'crom'
  13  0000              #line 13 "D:\Wade\Work\MCU\Holtek MCU\Robot Arm Project\Program\Arm_Banch_Sensor\Arm_Banch_Sensor.c"
  13  0000              @crom	.section	'crom'
  13  0000              _scan:
  13  0000              #pragma debug array 42 10 4 1
  13  0000              #pragma debug array 42 10 4 1
  13  0000              #pragma debug variable 42 1 _scan "scan"
  13  0000  0001        	dc 1
  13  0001  0002        	dc 2
  13  0002  0004        	dc 4
  13  0003  0008        	dc 8
  13  0004              public _tag
  10  0004              #line 10 "D:\Wade\Work\MCU\Holtek MCU\Robot Arm Project\Program\Arm_Banch_Sensor\Arm_Banch_Sensor.c"
  10  0004              @crom	.section	'crom'
  10  0004              _tag:
  10  0004              #pragma debug array 43 10 10 1
  10  0004              #pragma debug array 43 10 10 1
  10  0004              #pragma debug variable 43 1 _tag "tag"
  10  0004  003F        	dc 63
  10  0005  0006        	dc 6
  10  0006  005B        	dc 91
  10  0007  004F        	dc 79
  10  0008  0066        	dc 102
  10  0009  006D        	dc 109
  10  000A  007D        	dc 125
  10  000B  0027        	dc 39
  10  000C  007F        	dc 127
  10  000D  006F        	dc 111
  10  000E              #pragma debug struct_end
  10  000E              #pragma debug struct_end
  10  000E              #pragma debug union_end
  10  000E              #pragma debug union_end
  10  000E              #pragma debug variable 45 1 ___intc0 "__intc0" 1
  10  000E              #pragma debug struct_end
  10  000E              #pragma debug struct_end
  10  000E              #pragma debug union_end
  10  000E              #pragma debug union_end
  10  000E              #pragma debug variable 47 1 ___intc1 "__intc1" 1
  10  000E              #pragma debug struct_end
  10  000E              #pragma debug struct_end
  10  000E              #pragma debug union_end
  10  000E              #pragma debug union_end
  10  000E              #pragma debug variable 49 1 ___pf "__pf" 1
  10  000E              #pragma debug struct_end
  10  000E              #pragma debug struct_end
"File: Arm_Banch_Sensor.c  Assembler  Version HGASM0202      Page 11

  10  000E              #pragma debug union_end
  10  000E              #pragma debug union_end
  10  000E              #pragma debug variable 51 1 ___pfc "__pfc" 1
  10  000E              #pragma debug struct_end
  10  000E              #pragma debug struct_end
  10  000E              #pragma debug union_end
  10  000E              #pragma debug union_end
  10  000E              #pragma debug variable 53 1 ___pg "__pg" 1
  10  000E              #pragma debug struct_end
  10  000E              #pragma debug struct_end
  10  000E              #pragma debug union_end
  10  000E              #pragma debug union_end
  10  000E              #pragma debug variable 55 1 ___pgc "__pgc" 1
  10  000E              #pragma debug struct_end
  10  000E              #pragma debug struct_end
  10  000E              #pragma debug union_end
  10  000E              #pragma debug union_end
  10  000E              #pragma debug variable 57 1 ___ph "__ph" 1
  10  000E              #pragma debug struct_end
  10  000E              #pragma debug struct_end
  10  000E              #pragma debug union_end
  10  000E              #pragma debug union_end
  10  000E              #pragma debug variable 59 1 ___wdtc "__wdtc" 1
  10  000E              #pragma debug variable 8 1 ___sadol "__sadol" 1
  10  000E              #pragma debug variable 8 1 ___sadoh "__sadoh" 1
  10  000E              #pragma debug struct_end
  10  000E              #pragma debug struct_end
  10  000E              #pragma debug union_end
  10  000E              #pragma debug union_end
  10  000E              #pragma debug variable 61 1 ___sadc0 "__sadc0" 1
  10  000E              #pragma debug struct_end
  10  000E              #pragma debug struct_end
  10  000E              #pragma debug union_end
  10  000E              #pragma debug union_end
  10  000E              #pragma debug variable 63 1 ___sadc1 "__sadc1" 1
  10  000E              #pragma debug struct_end
  10  000E              #pragma debug struct_end
  10  000E              #pragma debug union_end
  10  000E              #pragma debug union_end
  10  000E              #pragma debug variable 65 1 ___sadc2 "__sadc2" 1
  10  000E              #pragma debug struct_end
  10  000E              #pragma debug struct_end
  10  000E              #pragma debug union_end
  10  000E              #pragma debug union_end
  10  000E              #pragma debug variable 67 1 ___pcs0 "__pcs0" 1
  10  000E              extern r1:byte
  10  000E              extern r2:byte
  10  000E              extern r3:byte
  23  000E              #line 23 "D:\Wade\Work\MCU\Holtek MCU\Robot Arm Project\Program\Arm_Banch_Sensor\Arm_Banch_Sensor.c"
  23  0000              @code .section at 0 'code'
  23  0000  1F0B        	clr bp
  23  0001  2800     R  	jmp _main_startup1
  23  0002              
  23  0002              
  23  0002              ; 
  23  0002              ; Generated by holtek-gcc v3.19, Tue Apr 13 16:10:40 2021
  23  0002              ; Rebuild 718
  23  0002              ; end of file


"File: Arm_Banch_Sensor.c  Assembler  Version HGASM0202      Page 12

        0 Errors, 0